(lp0
(lp1
(lp2
F-9.571872455347497
aF-11.520944833714093
aF-11.540131213183844
aF-11.539148838582618
aF-11.558645227019026
aF-11.55765470741099
aF-11.620139425172976
aF-11.640999120771637
aF-11.639974624178802
aF-11.73026442421544
aF-11.72920353687083
aF-11.77623807417136
aF-11.799854039403176
aF-11.823904878457691
aF-11.901052578237021
aF-11.89992137401525
aF-11.925848414800445
aF-11.980382817088438
aF-11.979218540154235
aF-12.006691464975164
aF-12.034710513364914
aF-12.06329213306913
aF-12.092453439012695
aF-12.15382369668605
aF-12.18484688175353
aF-9.5640359593076
aF-9.563836051194782
aF-9.571211337618015
aF-12.05126229753975
aF-11.593224478373594
aF-11.614031797733816
aF-11.657796860950752
aF-11.703130414683324
aF-11.725871928667695
aF-11.749028393445107
aF-11.797742628040115
aF-11.796632447837352
aF-11.84717070841792
aF-11.872593492099469
aF-11.898507012642577
aF-11.897353972747084
aF-11.89620093285159
aF-11.979338322944354
aF-11.97815090180259
aF-12.035958201782268
aF-12.063914313024627
aF-9.604579442753629
aF-9.578628575871148
aF-9.558616942664642
aF-9.565123482825419
aF-12.223602584551722
aF-12.090342961703977
aF-12.121023082344712
aF-12.055351633010767
aF-11.993555556148355
aF-11.467255312386431
aF-11.547498829161224
aF-11.566877276172338
aF-11.587636258989418
aF-11.60876068258187
aF-11.70038259430531
aF-11.699292670896174
aF-11.722417621334476
aF-11.745972361008192
aF-11.744862180805427
aF-11.768848390480004
aF-11.819338569398493
aF-11.844738099145864
aF-11.84358505925037
aF-11.897036973589998
aF-11.923966132523795
aF-11.951435979782485
aF-12.009288125849576
aF-12.008064210091037
aF-9.602189511965133
aF-9.591225130240504
aF-9.582538096834295
aF-9.575926477061927
aF-9.572131392556004
aF-9.57014882137302
aF-9.570822649722697
aF-9.574177777158711
aF-9.574864755095009
aF-9.562356069388212
aF-9.57175501815915
aF-12.38385983556726
aF-12.198261503207572
aF-12.129375570368724
aF-12.0634020339519
aF-11.998923435422077
aF-11.997686851125412
aF-11.45872424883427
aF-11.56287915248305
aF-11.518689396407492
aF-11.53902793070678
aF-11.581849542601063
aF-11.603300656606658
aF-11.648467024938105
aF-11.67112401349698
aF-11.694202093976267
aF-11.742800581445028
aF-11.767225664389755
aF-11.766083646697517
aF-11.790969185649153
aF-11.816339772456635
aF-11.815175495522432
aF-11.868593942103235
aF-11.89550790313916
aF-11.894308561373553
aF-11.950990191398908
aF-9.5999535362282
aF-9.589840440424576
aF-9.577307682471442
aF-9.5698028971206
aF-9.564260975692061
aF-9.560561303001009
aF-9.559487202536676
aF-9.558416866812648
aF-9.5599309918178
aF-9.563203014624653
aF-9.56830584274068
aF-9.569888143681055
aF-12.66308662763097
aF-12.661547312970558
aF-12.614317009308019
aF-12.56827323787585
aF-11.972557638338607
aF-11.88298809000944
aF-11.88177658584847
aF-11.429649910532833
aF-11.51173987526746
aF-11.532377915396271
aF-11.553385777568325
aF-11.597641378980036
aF-11.5965514555709
aF-11.642431826944343
aF-11.665457247526692
aF-11.66433665391629
aF-11.712828723996541
aF-11.73720027215244
aF-11.762046849890767
aF-11.78738248220483
aF-11.840779168261445
aF-11.839579826495838
aF-11.895140088465318
aF-11.893916172706778
aF-9.592374963376326
aF-9.580430635970238
aF-9.566285178654786
aF-9.558076007610271
aF-9.55267782717793
aF-9.550763680901262
aF-9.548862952854778
aF-9.547813076136045
aF-9.54928731125118
aF-9.551623600459882
aF-9.557456998716773
aF-9.565237016523245
aF-9.57798167341509
aF-12.6829152460962
aF-12.457225524053092
aF-12.372285311074991
aF-12.29136067810071
aF-12.110185532646119
aF-12.108852351687654
aF-12.009064741126133
aF-11.976372709154232
aF-11.975096495256494
aF-11.402125908781422
aF-11.46270369689858
aF-11.48290628819148
aF-11.525487416369371
aF-11.569636756373765
aF-11.568536797821988
aF-11.590661559912418
aF-11.589551379709654
aF-11.660715818987804
aF-11.659573801295565
aF-11.683431358655728
aF-11.682278318760236
aF-11.732555236512246
aF-11.757849561262116
aF-11.756662140120351
aF-11.80997725286056
aF-11.836842154014649
aF-9.579805215157851
aF-9.566335617707828
aF-9.554422719517962
aF-9.548138571940832
aF-9.54284562181709
aF-9.539309038896908
aF-9.538275876201759
aF-9.538066875167225
aF-9.538680936965063
aF-9.541791395099041
aF-9.546646858359802
aF-9.554236395289623
aF-9.567599784296746
aF-12.56301367131954
aF-12.472579674685385
aF-12.386633124397326
aF-12.304848097869801
aF-12.2647084064944
aF-12.188637674745092
aF-12.081644312056433
aF-12.046683044353763
aF-11.374125757112951
aF-11.393202945858867
aF-11.433434660986688
aF-11.475121270865706
aF-11.495990087063898
aF-11.517243189984493
aF-11.538891292880493
aF-11.584548584653035
aF-11.583417380431264
aF-11.606318878594589
aF-11.629662445159017
aF-11.653461004759032
aF-11.65229672782483
aF-11.702477370841558
aF-11.72772367320919
aF-11.780992051081059
aF-11.77976813532252
aF-9.568276585048899
aF-9.554232492584164
aF-9.545221269986653
aF-9.537364272369599
aF-9.532194538304275
aF-9.529545757628423
aF-9.528529675232939
aF-9.528320674198405
aF-9.528917655696578
aF-9.531142168892304
aF-9.53587521492333
aF-9.545001184654817
aF-9.557217895178404
aF-12.403230740532809
aF-12.359838451749166
aF-12.277707935022608
aF-12.276244067112222
aF-12.124959092518676
aF-12.052451544670618
aF-11.984513737019872
aF-12.984310695440108
aF-11.345636992028647
aF-11.344594617576231
aF-11.404711533049475
aF-11.424755125362044
aF-11.467049540698774
aF-11.465949582146997
aF-11.48712102584857
aF-11.508689642681123
aF-11.507569049070721
aF-11.553063955893613
aF-11.575893531662304
aF-11.57474049176681
aF-11.598003805258962
aF-11.62172500997581
aF-11.645917759279232
aF-11.696986778399706
aF-11.669396913034653
aF-9.559580227753205
aF-9.543965402786855
aF-9.53429654503261
aF-9.526628273884516
aF-9.523181211095407
aF-9.519782476359937
aF-9.519573109049324
aF-9.519363741738708
aF-9.519154374428094
aF-9.520530399691076
aF-9.524331139616603
aF-9.533194290007419
aF-9.549526881229285
aF-12.333881806380232
aF-12.332362073221491
aF-12.289859975177352
aF-12.248412380371317
aF-12.16997367145942
aF-12.059885038911286
aF-11.99022663454981
aF-11.923677610644447
aF-11.954554269420505
aF-13.211697890667928
aF-13.209758823159458
aF-11.297028663746008
aF-11.315595161791933
aF-11.334491406577103
aF-11.395428718556897
aF-11.394338795147762
aF-11.4146559743095
aF-11.435350758816643
aF-11.479047253458372
aF-11.500951050884876
aF-11.499809033192637
aF-11.546039436561502
aF-11.5209715782701
aF-11.568073499434494
aF-11.566897764283226
aF-11.590545568858673
aF-11.614668178156938
aF-11.66562009793826
aF-9.525886884899842
aF-9.515718404979516
aF-9.512354297889079
aF-9.511363088774536
aF-9.512716469703737
aF-9.514870534434932
aF-9.515452098010053
aF-9.516834551351486
aF-12.261493405910173
aF-12.180784036001075
aF-12.141180851524688
aF-12.102536458254232
aF-12.064816454191066
aF-11.993415513922923
aF-11.861508303310556
aF-11.860175122352091
aF-13.056540260629504
aF-13.054632163369263
aF-13.253251034999662
aF-11.248420335463372
aF-11.266558983423051
aF-11.30488177497281
aF-11.324022834354714
aF-11.364462325023782
aF-11.363362366472005
aF-11.38358049178472
aF-11.426296587861042
aF-11.40305731250701
aF-11.446554110491661
aF-11.445412092799424
aF-11.467202664773387
aF-11.537548220721646
aF-11.53636079957988
aF-11.559939443279223
aF-11.583996303938852
aF-11.582784799777883
aF-9.530243235137075
aF-9.519881430877893
aF-9.515570732580393
aF-9.502749888505074
aF-9.501775570402524
aF-9.502328940740284
aF-9.499082071291944
aF-9.497371481630307
aF-9.511858421733308
aF-9.512443998886305
aF-9.520396157675588
aF-9.579173106784072
aF-12.190624738598856
aF-12.11167366398807
aF-12.072917309775727
aF-11.964968838579503
aF-11.929736931696507
aF-11.895318594624936
aF-11.893939235249935
aF-11.798005815018199
aF-12.846858218935242
aF-13.028912430012571
aF-12.963745083742285
aF-11.199812007180734
aF-11.198769632728318
aF-11.254966895934476
aF-11.293777426640759
aF-11.313168717186286
aF-11.31206875863451
aF-11.331810224752795
aF-11.37354592226371
aF-11.37241471804194
aF-11.393299187790685
aF-11.41458679117217
aF-11.413433751276674
aF-11.435125037561361
aF-11.48098860915932
aF-11.479801188017555
aF-11.527501066708425
aF-11.577175877832488
aF-9.52237106227546
aF-9.514589266504894
aF-9.509470913837994
aF-9.507644499909869
aF-9.49028326524387
aF-9.504388264738086
aF-9.50259670810125
aF-9.505540759113302
aF-9.51096242177811
aF-9.570718225565717
aF-12.119756071287538
aF-12.042563291975066
aF-11.969108179668119
aF-11.93298400426514
aF-11.864662878089117
aF-11.83099588106987
aF-11.737169688642773
aF-11.706395962610959
aF-12.880490393156276
aF-12.878582295896035
aF-12.938489233439128
aF-13.000372950086076
aF-11.169538176108642
aF-11.187137412307337
aF-11.205052016896143
aF-11.223290543347387
aF-11.26187510934879
aF-11.260775150797013
aF-11.28003995772087
aF-11.32079525666638
aF-11.319664052444608
aF-11.340044265089709
aF-11.360817877675457
aF-11.359664837779963
aF-11.403591762356744
aF-11.402416027205476
aF-11.424428997596996
aF-11.446883948226969
aF-11.469794325317029
aF-9.522367933430521
aF-9.507757412141837
aF-9.504284193402173
aF-9.500861994137969
aF-9.498273613450117
aF-9.48808775404391
aF-9.479798670388837
aF-9.479589669354302
aF-9.495062521655072
aF-9.495621800934565
aF-9.496964648215492
aF-9.501493850022731
aF-9.56033436973482
aF-12.050407137134961
aF-12.048887403976222
aF-11.937854094188193
aF-11.936390226277807
aF-11.866353353497363
aF-11.831870567143575
aF-11.735872533353326
aF-11.704418863163744
aF-11.673667200350417
aF-12.67440888018275
aF-12.848066036865685
aF-12.846126969357215
aF-11.10259535061546
aF-11.137665785102545
aF-11.15513713785781
aF-11.15406674526166
aF-11.191036211315486
aF-11.209481542959518
aF-11.228269690688947
aF-11.24741030127184
aF-11.287931360080972
aF-11.286789342388733
aF-11.285647324696496
aF-11.30589592428325
aF-11.326539192429626
aF-11.370244228318203
aF-11.369056807176436
aF-11.390955871583646
aF-11.413299088086601
aF-11.436100107411203
aF-9.500598635942751
aF-9.495560112669656
aF-9.49218961147694
aF-9.488100268083405
aF-9.477420380538675
aF-9.467954476560319
aF-9.467052456700245
aF-9.485702842755828
aF-9.487009463721218
aF-9.489097070354756
aF-9.494355050422753
aF-9.54169146629455
aF-11.979538469823645
aF-11.941468235907042
aF-11.869590552439234
aF-11.868126684528846
aF-11.767439377781816
aF-11.734514770874338
aF-11.672284008054206
aF-11.612831073974991
aF-11.583429577461807
aF-12.643520455832661
aF-12.69871623390232
aF-12.755703772783772
aF-11.071465819370879
aF-11.088194157897751
aF-11.105222258819477
aF-11.141300488766554
aF-11.159287893673799
aF-11.177609603859786
aF-11.176499423657022
aF-11.195154432989984
aF-11.214162721249945
aF-11.233534419687757
aF-11.23239240199552
aF-11.25212701078654
aF-11.250973970891046
aF-11.314872037897644
aF-11.313684616755879
aF-11.335027794940322
aF-11.356803850856174
aF-11.379026088719074
aF-9.507691153896495
aF-9.494137268323914
aF-9.486771000945591
aF-9.48192252167963
aF-9.47867648269449
aF-9.465379047198411
aF-9.458259159790535
aF-9.458730877822363
aF-9.477802242742099
aF-9.477583682754
aF-9.481142334926531
aF-9.490273056387538
aF-11.838196231221575
aF-11.871489759335228
aF-11.801327010690272
aF-11.73452090357144
aF-11.701596224182586
aF-11.639407099779671
aF-11.608695482755085
aF-11.5506617666411
aF-11.549328585682636
aF-11.416943253793072
aF-12.557818380494435
aF-12.555940279738369
aF-12.609737251535586
aF-12.724627751375666
aF-11.022429641001995
aF-11.03872253069296
aF-11.055307379781144
aF-11.072192106836393
aF-11.089384919399349
aF-11.106894327284525
aF-11.124729156625097
aF-11.142898564708126
aF-11.141777971097726
aF-11.160280851430842
aF-11.179137479294544
aF-11.198358097289827
aF-11.217953347297893
aF-11.237934290127725
aF-11.25831242633532
aF-11.301520117786717
aF-11.300308613625749
aF-11.3452801659944
aF-11.344043581697735
aF-9.487552264350473
aF-9.477916128379302
aF-9.47165543188232
aF-9.467753577349983
aF-9.463207544961026
aF-9.459458139784589
aF-9.459945543435827
aF-9.465430192401975
aF-9.468857662035747
aF-9.473098985557641
aF-11.80301192635217
aF-11.801511282763414
aF-11.700805474671625
aF-11.66789025280366
aF-11.605762135040534
aF-11.604366663659558
aF-11.517154365055763
aF-11.461781659979758
aF-11.434349922461237
aF-12.580674582162297
aF-12.468360103644077
aF-12.520758269168851
aF-12.518850171908609
aF-10.973393462633114
aF-10.989250903488168
aF-11.005392500742811
aF-11.02182596133273
aF-11.03855927344128
aF-11.05560071944703
aF-11.072958889593172
aF-11.09064269642627
aF-11.08952210281587
aF-11.127024574285805
aF-11.125882556593568
aF-11.144589183793116
aF-11.163660424732026
aF-11.183107044435141
aF-11.181931309283872
aF-11.267325882851894
aF-11.24381337639532
aF-11.287615384109044
aF-11.309578822456585
aF-9.469748661736467
aF-9.463574245306924
aF-9.458292568590888
aF-9.45314445771835
aF-9.450855115566922
aF-9.451328789789368
aF-9.455999439403385
aF-9.460067315114921
aF-9.466452595309669
aF-11.733033449780356
aF-11.731532806191602
aF-11.633368261466435
aF-11.601259602035883
aF-11.540688081433144
aF-11.455631683245345
aF-11.481518432156841
aF-11.400298467405182
aF-11.348645174611605
aF-12.279803325344519
aF-12.431779286802115
aF-12.484434183063444
aF-10.924357284264232
aF-10.923305734840877
aF-10.972539885545398
aF-10.971459815829066
aF-11.005407070161311
aF-11.004307111609535
aF-11.003207153057758
aF-11.002107194505982
aF-11.037266234534012
aF-11.054779520236181
aF-11.072627633892592
aF-11.090820270296403
aF-11.109367502166158
aF-11.128279798742557
aF-11.1475680454942
aF-11.167243565010354
aF-11.231187186520351
aF-11.207804032642686
aF-11.228714017927022
aF-9.46448712572384
aF-9.456851206173134
aF-9.452316856509912
aF-9.447882051550987
aF-9.4455922760445
aF-9.446752403999248
aF-9.450725351119008
aF-9.454787309473039
aF-11.663054973208542
aF-11.6293830875398
aF-11.565931048261245
aF-11.534628951268104
aF-11.475614027825754
aF-11.419293522036034
aF-11.3914125487582
aF-11.338815274830605
aF-11.312725808972042
aF-12.293199751455495
aF-12.39595005399847
aF-12.39401098649
aF-9.451208695580283
aF-9.454579880481003
aF-9.457277545541233
aF-9.46076462746086
aF-9.463556628487927
aF-9.46562118968123
aF-9.468489213818112
aF-9.47140234946199
aF-9.474361669396565
aF-9.47574014637298
aF-9.478769876169322
aF-9.48101400478579
aF-9.484129785488161
aF-9.486438973325066
aF-9.488776692510893
aF-9.490268940985683
aF-9.493539866517608
aF-9.496865810590462
aF-9.498423726339874
aF-9.499994855664808
aF-9.503432917604691
aF-9.506930306256026
aF-9.509528368916962
aF-9.512160496291681
aF-9.513847100548103
aF-9.518526796867592
aF-9.521278037934255
aF-9.525094012834462
aF-9.500209712127475
aF-9.449281691187583
aF-9.444097692573648
aF-9.440413820167027
aF-9.43950936477866
aF-9.439973477843663
aF-9.443208817197819
aF-9.448647770650895
aF-11.59307649663673
aF-11.52973671160482
aF-11.528272843694431
aF-11.439635574023137
aF-11.410539974218365
aF-11.355704996736913
aF-11.278650549923134
aF-11.277332082256029
aF-11.228334345369014
aF-12.109982360601302
aF-12.253821322068646
aF-12.303587789916557
aF-9.441540544140643
aF-9.444120021543375
aF-9.44745597697038
aF-9.449396982830685
aF-9.453576723343202
aF-9.454837377411286
aF-9.457621253377017
aF-9.461221634435253
aF-9.463321410406536
aF-9.466239807367732
aF-9.467596764915998
aF-9.469773261141066
aF-9.471976267100008
aF-9.4742062700935
aF-9.478148644969696
aF-9.479599941496105
aF-9.481924127245357
aF-9.48427757191773
aF-9.486660831519101
aF-9.489970676137043
aF-9.491519090874517
aF-9.493995275364448
aF-9.49650364521838
aF-9.500931933793744
aF-9.501619484139436
aF-9.506163502171146
aF-9.508831881304731
aF-9.511536270090005
aF-9.521461937838144
aF-9.491028153468656
aF-9.482758563462015
aF-9.43441628943476
aF-9.430146730369716
aF-9.428598208014224
aF-9.429706388046354
aF-9.434207813305935
aF-9.478403723719975
aF-9.491445893823892
aF-9.495809242815218
aF-9.51405989111342
aF-11.523098020064916
aF-11.461473169855857
aF-11.431056621850864
aF-11.373792420423907
aF-11.319172891379337
aF-11.267018958799001
aF-11.265670732460638
aF-11.215848889681453
aF-11.191101695482846
aF-12.072685227332109
aF-12.166750436962152
aF-12.116161298510844
aF-12.213164593343114
aF-9.4311586550223
aF-9.433660162605745
aF-9.438299885431983
aF-9.440908909042149
aF-9.44283449838805
aF-9.444782495215211
aF-9.44675329293592
aF-9.450246623833301
aF-9.453043787582603
aF-9.455111334042726
aF-9.457987108644891
aF-9.460114019278269
aF-9.461465377124176
aF-9.464446354808517
aF-9.466652751796234
aF-9.468056407877622
aF-9.470308387973105
aF-9.472588718002541
aF-9.475758451543205
aF-9.477236596529897
aF-9.48048693242072
aF-9.482004520824177
aF-9.485338601439864
aF-9.4878121457446
aF-9.490318336151413
aF-9.49474678369697
aF-9.496385724675209
aF-9.500952750166933
aF-9.50363412893326
aF-9.48262332686032
aF-9.474444183338582
aF-9.466572006690997
aF-9.457396797650588
aF-9.45636212812405
aF-9.42292809898301
aF-9.46147578847993
aF-9.466989478569952
aF-9.471809583704657
aF-9.478516361903306
aF-9.482729232470435
aF-9.48246873433989
aF-9.488625249306898
aF-9.494017911124002
aF-11.363619408645674
aF-11.307949266824679
aF-11.280391867003585
aF-11.22852794613867
aF-11.202799824311857
aF-11.154365697106876
aF-11.108023516126424
aF-11.084956897317054
aF-11.986460557955862
aF-11.940161395858086
aF-11.982762492389682
aF-12.073955260074932
aF-10.524041025258473
aF-10.544822574977628
aF-9.422095734429037
aF-9.42453835011699
aF-9.42770072373869
aF-9.43092384090444
aF-9.4320922734329
aF-9.434688535389826
aF-9.436603995948357
aF-9.438542052894224
aF-9.441240892426482
aF-9.443233727092508
aF-9.445250542409351
aF-9.446528434769482
aF-9.449357867502096
aF-9.450668131773035
aF-9.452776184190885
aF-9.45570994856264
aF-9.457880175668087
aF-9.46089986408735
aF-9.463135041877557
aF-9.464556519433033
aF-9.46769143741417
aF-9.470013766283907
aF-9.474124972870408
aF-9.476530259150275
aF-9.478063822844728
aF-9.481436912778255
aF-9.484870423839675
aF-9.487418865099965
aF-9.490961478127492
aF-9.473186584277425
aF-9.465987253874793
aF-9.459030626170415
aF-9.449931772828112
aF-9.4473435480995
aF-9.448656303927637
aF-9.453959899076851
aF-9.45777204487844
aF-9.463348202954199
aF-9.46736070572579
aF-9.466242054835904
aF-9.46598436615471
aF-9.472706623546223
aF-9.474226709366082
aF-9.485934908127268
aF-9.473699970335767
aF-9.460465476147865
aF-11.141277142501439
aF-11.094200972199404
aF-11.070781657582938
aF-11.06947758199365
aF-11.855250913486477
aF-11.94100094632226
aF-11.939122845566194
aF-10.481387289701095
aF-10.513673514641956
aF-9.412318669467917
aF-9.414692053836877
aF-9.4171015620454
aF-9.419548025146435
aF-9.42203229988184
aF-9.425250428501338
aF-9.427117845716705
aF-9.42972096798545
aF-9.430919425180697
aF-9.433584245596181
aF-9.435550891200323
aF-9.4375414420292
aF-9.43880096876019
aF-9.441596024269456
aF-9.44366096544931
aF-9.445751632071417
aF-9.447868507888028
aF-9.449211010172162
aF-9.45218288352823
aF-9.45438141344779
aF-9.455777610683995
aF-9.458863832711193
aF-9.46200377363281
aF-9.464329421828541
aF-9.466685831843993
aF-9.469073618081808
aF-9.472396399185717
aF-9.474860482521798
aF-9.477358120425544
aF-9.466246470309827
aF-9.457384077377853
aF-9.450514568188057
aF-9.443874707348181
aF-9.442062850454535
aF-9.4433754822807
aF-9.446285650620233
aF-9.449245289464733
aF-9.453080493725254
aF-9.455318111676739
aF-9.451743607241113
aF-9.453967747768502
aF-9.457065077972585
aF-9.442159906978786
aF-9.438806017233377
aF-9.43855795956059
aF-9.442978852581692
aF-9.441159366333226
aF-11.054640488928438
aF-10.989002681203553
aF-10.96720750778347
aF-11.77034043111487
aF-11.853420770227968
aF-11.851542669471902
aF-10.460046315637893
aF-10.459117409563367
aF-9.401878412573184
aF-9.404808504065189
aF-9.407147246095848
aF-9.409521926569347
aF-9.411933380275503
aF-9.413708469161751
aF-9.41687007785019
aF-9.418702544490568
aF-9.421259318629291
aF-9.422433497979732
aF-9.42505133710671
aF-9.426981986447082
aF-9.428936295190978
aF-9.430914700925676
aF-9.43291765209646
aF-9.434184129851923
aF-9.436999040863514
aF-9.438298658423397
aF-9.441184279415868
aF-9.443317088929525
aF-9.446289391250957
aF-9.447665694742554
aF-9.449882574395213
aF-9.452128584506806
aF-9.454404303049051
aF-9.456710323385362
aF-9.45992237453176
aF-9.463192482141363
aF-9.464714231182121
aF-9.456511555849584
aF-9.4494621482102
aF-9.443460916727451
aF-9.437637834826301
aF-9.43505097262042
aF-9.436350595927513
aF-9.438447984907537
aF-9.440572343554372
aF-9.441918112441904
aF-9.442466506744683
aF-9.439804247817637
aF-9.439548215905392
aF-9.440889576251537
aF-9.42748657268667
aF-9.423549435674717
aF-9.42112815019764
aF-9.418736355988631
aF-9.418493837445736
aF-9.423297116479421
aF-11.80892641023497
aF-11.76396249337761
aF-10.4167292798935
aF-10.437087538433673
aF-9.3920450318276
aF-9.394887488978162
aF-9.39652788053974
aF-9.3988209694018
aF-9.40114956800556
aF-9.403514507619148
aF-9.405916645660934
aF-9.40835686673598
aF-9.410153030784654
aF-9.41197080886062
aF-9.413810593461987
aF-9.416379572253355
aF-9.417557800332586
aF-9.41946605658686
aF-9.420669179102385
aF-9.424094522969574
aF-9.426083962323924
aF-9.428098605157155
aF-9.429371500671945
aF-9.431428685920768
aF-9.434298636710686
aF-9.436419039098412
aF-9.437761375157615
aF-9.439927747185072
aF-9.442122774254111
aF-9.444347028688917
aF-9.447448349877803
aF-9.450605726132839
aF-9.448616885433333
aF-9.441629142990873
aF-9.441365191585932
aF-9.436222699520902
aF-9.432782397854472
aF-9.431738331764446
aF-9.430698760044407
aF-9.428889016043142
aF-9.427862207143678
aF-9.429927357901633
aF-9.42735123838368
aF-9.426329902229094
aF-9.426840269623684
aF-9.416891118905072
aF-9.413766561347312
aF-9.407912193275466
aF-9.40493545854946
aF-9.404694893396334
aF-9.405132773858766
aF-9.40421376309008
aF-9.402626400622324
aF-11.7610486104759
aF-10.373412244149106
aF-10.382704066833329
aF-9.382174656410578
aF-9.384328505251728
aF-9.387124330465262
aF-9.388120012234253
aF-9.390365755735614
aF-9.392646547178053
aF-9.394322030329393
aF-9.397316607745953
aF-9.398388505222009
aF-9.4014660680329
aF-9.402569849817265
aF-9.40436358684917
aF-9.406871001100743
aF-9.409419807991604
aF-9.410586283466706
aF-9.412478783697322
aF-9.415122984566397
aF-9.415602211721533
aF-9.419046547069609
aF-9.420291614873474
aF-9.422307882170415
aF-9.424350356842917
aF-9.425640175920018
aF-9.427726909863337
aF-9.4306402363561
aF-9.431983733992471
aF-9.436624150161029
aF-9.438018970124315
aF-9.434439330292834
aF-9.427731818691372
aF-9.432273991191284
aF-9.426418291897363
aF-9.426156078498781
aF-9.424330595500072
aF-9.418708005504136
aF-9.415461255958672
aF-9.41744207014928
aF-9.416437592795175
aF-9.413223938866611
aF-9.413704224537074
aF-9.412716227377281
aF-9.403208464786532
aF-9.398185214108349
aF-9.393957914980302
aF-9.390472722801904
aF-9.385802529427076
aF-9.38309123282617
aF-9.379818741999046
aF-9.377793629610387
aF-9.376971078553636
aF-9.37852680760099
aF-11.588802141189028
aF-10.320359235991646
aF-9.373417480095341
aF-9.374932207502933
aF-9.377055292588688
aF-9.378014134478006
aF-9.380185834188383
aF-9.381778586736957
aF-9.384009781282424
aF-9.386276348755926
aF-9.387940455095379
aF-9.390270503258627
aF-9.391982386991621
aF-9.39371516388937
aF-9.395469218795064
aF-9.397923914818142
aF-9.399729680866226
aF-9.400863044425071
aF-9.403409554132983
aF-9.405284528972857
aF-9.407906819087836
aF-9.4083777881433
aF-9.411055047847556
aF-9.413028666040093
aF-9.414271923698868
aF-9.416288382677344
aF-9.418331572696623
aF-9.421975684751652
aF-9.423295368740568
aF-9.42543221411579
aF-9.420388188156586
aF-9.415477305384687
aF-9.408478161035614
aF-9.416483912862038
aF-9.401492806854204
aF-9.401946181123845
aF-9.403113118529356
aF-9.40501029719619
aF-9.404754265283945
aF-9.403779069303331
aF-9.40138605916368
aF-9.39832634352024
aF-9.391935832461366
aF-9.387073418947171
aF-9.384253174234416
aF-9.37836795181971
aF-9.373284525217114
aF-9.368936383299243
aF-9.365269227885351
aF-9.361132957052686
aF-9.359265733264984
aF-9.357419348615485
aF-9.358276225844977
aF-11.541989463134763
aF-11.427056799858656
aF-10.286778172660318
aF-9.362878471342242
aF-9.36433304580964
aF-9.366947573068579
aF-9.36844821285692
aF-9.368798131195724
aF-9.37209627007727
aF-9.373056349093169
aF-9.375845740563278
aF-9.377450663747164
aF-9.379700912742033
aF-9.380718916898235
aF-9.383023332076279
aF-9.384067436489387
aF-9.387086027348252
aF-9.389496397238293
aF-9.390591654779254
aF-9.391696123699571
aF-9.394186481910856
aF-9.39601841607908
aF-9.396463961413126
aF-9.39903842946135
aF-9.400933782301545
aF-9.403586874358089
aF-9.404799533189946
aF-9.406022909037146
aF-9.408768690027818
aF-9.4115638766
aF-9.412845458107267
aF-9.407969775310024
aF-9.403222792078003
aF-9.39859947901783
aF-9.393398148853148
aF-9.392449267494909
aF-9.392194328310325
aF-9.392631695713153
aF-9.39376864836409
aF-9.393512066567709
aF-9.393255484771327
aF-9.38954817946075
aF-9.385918822473581
aF-9.377221326857443
aF-9.374469630964391
aF-9.36933680244522
aF-9.363784302039223
aF-9.358424518474772
aF-9.354332187658704
aF-9.349818692514631
aF-9.346466048081078
aF-9.34369204764129
aF-9.341964698118012
aF-9.3407511523042
aF-9.342028401247209
aF-9.344335644493363
aF-11.41551988975651
aF-11.451102383507786
aF-10.234393582326152
aF-9.351802974118817
aF-9.354278143804901
aF-9.356246615901032
aF-9.357685234416763
aF-9.359140626217348
aF-9.36118574115333
aF-9.363263150947986
aF-9.365373626652037
aF-9.366918880534861
aF-9.368482804019749
aF-9.370065737509435
aF-9.372910158099135
aF-9.373290038000377
aF-9.375566363207238
aF-9.37723632933456
aF-9.378927274467841
aF-9.381299273615982
aF-9.38237370316693
aF-9.384130013070322
aF-9.386592752597195
aF-9.38840311523394
aF-9.388838898562994
aF-9.391386037036355
aF-9.392545019883261
aF-9.394435009579011
aF-9.396350277181257
aF-9.399779493519938
aF-9.400258702098743
aF-9.39775513770867
aF-9.392394488352966
aF-9.385128513083547
aF-9.382829973758826
aF-9.381899674085973
aF-9.380973353362977
aF-9.382735741883325
aF-9.381803646573303
aF-9.384262232713791
aF-9.379951415842983
aF-9.377710299757819
aF-9.372287365749992
aF-9.364003411668067
aF-9.361375052002545
aF-9.355340520917842
aF-9.350086749336176
aF-9.34607492887846
aF-9.341136738358488
aF-9.336861135036784
aF-9.332710684147798
aF-9.329622660793614
aF-9.32706436452161
aF-9.325007981053467
aF-9.324795258561142
aF-9.326421619173164
aF-11.292965137379705
aF-11.362123401141051
aF-10.20014410117153
aF-9.341800453836045
aF-9.343658778248795
aF-9.345545658733487
aF-9.347461758599833
aF-9.348314903379956
aF-9.35027521222939
aF-9.352266476745978
aF-9.354859758787525
aF-9.356344852805242
aF-9.357847925782908
aF-9.35996156320054
aF-9.361508375793456
aF-9.363074300149
aF-9.364659692674275
aF-9.365644758771774
aF-9.367890352730118
aF-9.369536378795209
aF-9.370560924423007
aF-9.372241610061565
aF-9.37394395352461
aF-9.376334432978444
aF-9.377415310320165
aF-9.379867746849921
aF-9.380978499794569
aF-9.382099090885713
aF-9.384637214863083
aF-9.387941861007388
aF-9.388395349138055
aF-9.387402031173051
aF-9.380085824693488
aF-9.375745050159065
aF-9.372170617195795
aF-9.37060839017166
aF-9.371655239833407
aF-9.372052936183941
aF-9.371139862471018
aF-9.373516340062093
aF-9.368037589112811
aF-9.367142826369893
aF-9.358223556955348
aF-9.35151863206166
aF-9.347877151885006
aF-9.342693468673486
aF-9.339261026498784
aF-9.333866582196215
aF-9.329162063344288
aF-9.324613607294756
aF-9.320671256311897
aF-9.316841824077057
aF-9.313553530614053
aF-9.311194325441308
aF-9.309715235348209
aF-9.30950696303457
aF-9.3114186759526
aF-10.699829277819433
aF-9.332260482949515
aF-9.333039412692687
aF-9.335357845872291
aF-9.336677946329887
aF-9.338013468201893
aF-9.33936468330545
aF-9.34180986305778
aF-9.34430388675162
aF-9.344617385301962
aF-9.347170044516746
aF-9.3492009322279
aF-9.350106593487777
aF-9.351602080041747
aF-9.353707729661036
aF-9.3552476611395
aF-9.35620149881493
aF-9.357773483974436
aF-9.359365510989921
aF-9.360977965602602
aF-9.36324626298392
aF-9.364265750722948
aF-9.365941903835509
aF-9.367640130441254
aF-9.368696970999627
aF-9.369763172192416
aF-9.372871699419564
aF-9.375355104998864
aF-9.376478146580938
aF-9.375509565076623
aF-9.368440492834035
aF-9.365542423252606
aF-9.361418893990347
aF-9.360526833560169
aF-9.362174934876109
aF-9.360642478517818
aF-9.362937584357004
aF-9.362034431877309
aF-9.356740795677798
aF-9.358350178041228
aF-9.347838843134332
aF-9.339134615257633
aF-9.335123670925103
aF-9.33174003648423
aF-9.328435303661394
aF-9.32276199480953
aF-9.318253218044806
aF-9.31389373559782
aF-9.309240085914224
aF-9.305172009885489
aF-9.301232037432072
aF-9.29860465735398
aF-9.29681471759154
aF-9.295049230113209
aF-9.296403902496541
aF-9.298975894364162
aF-10.652713123581037
aF-9.320245646481514
aF-9.323392896014628
aF-9.32463629452124
aF-9.326393900073542
aF-9.326663457705173
aF-9.329477509670625
aF-9.331311805085369
aF-9.333175413426614
aF-9.334532761099869
aF-9.336448898863273
aF-9.337297154836556
aF-9.339259547539887
aF-9.340690971013512
aF-9.34271019144919
aF-9.344184268694992
aF-9.345093588975745
aF-9.346598390409996
aF-9.348122418002175
aF-9.349666042586978
aF-9.350620488976384
aF-9.352813614378872
aF-9.35441835251102
aF-9.355412514032587
aF-9.357052205804179
aF-9.358713779064862
aF-9.360397674765608
aF-9.363435359383578
aF-9.364506726945876
aF-9.364234970069822
aF-9.35674347408371
aF-9.355204545969594
aF-9.351189293031565
aF-9.35092879490102
aF-9.350668296770472
aF-9.349793804287973
aF-9.352627997739322
aF-9.349273941586896
aF-9.346591248336216
aF-9.346934765235282
aF-9.329188082040034
aF-9.32685014629644
aF-9.32353148858964
aF-9.321783729599625
aF-9.317609580824001
aF-9.313563225808126
aF-9.308732295507482
aF-9.303645532644824
aF-9.29793213813517
aF-9.293666962298305
aF-9.289166526228708
aF-9.285944037375682
aF-9.283898459409402
aF-9.28260715132313
aF-9.282405896144784
aF-9.283656413838099
aF-10.623280386033295
aF-9.312265896004188
aF-9.314864125832003
aF-9.316069885557043
aF-9.316319867160026
aF-9.318032889507611
aF-9.319773016068016
aF-9.322046940101611
aF-9.324366745393274
aF-9.325162610238738
aF-9.326490327540698
aF-9.327834382270357
aF-9.32973473845903
aF-9.331118620886404
aF-9.331417700877036
aF-9.333380158542331
aF-9.335375905661916
aF-9.336831340219877
aF-9.337726683163503
aF-9.339798839726374
aF-9.34131164395791
aF-9.342844326887638
aF-9.343789756841849
aF-9.345355870677498
aF-9.347565644828096
aF-9.349181893451536
aF-9.352105833016164
aF-9.352480719400035
aF-9.35220834293831
aF-9.345611406171281
aF-9.344115056454743
aF-9.34082497703669
aF-9.34116185498861
aF-9.33970465722898
aF-9.340038336840946
aF-9.342181440217383
aF-9.336568858135943
aF-9.3357286985343
aF-9.328149396679018
aF-9.3179017934155
aF-9.315158312285645
aF-9.312955289634605
aF-9.311266826938317
aF-9.307248362379582
aF-9.305628992086094
aF-9.301336379192243
aF-9.295066591594752
aF-9.281948636528965
aF-9.277708071717587
aF-9.274319094906584
aF-9.271709327269152
aF-9.270160289412926
aF-9.268631680315675
aF-9.266797869298943
aF-9.269565541126047
aF-9.300965367880593
aF-9.30252123418737
aF-9.303646294232449
aF-9.305244162719651
aF-9.306400582951964
aF-9.30804219014736
aF-9.30970987474491
aF-9.311892008003186
aF-9.31312600174855
aF-9.31487575832972
aF-9.315135025197097
aF-9.317431434128935
aF-9.318215074318015
aF-9.319527050323618
aF-9.321385597051501
aF-9.322200760105499
aF-9.323022822395021
aF-9.32494293721112
aF-9.325787323740027
aF-9.327756245677323
aF-9.329190444720313
aF-9.331219494613832
aF-9.332698829890164
aF-9.33360762228595
aF-9.335119488198572
aF-9.337256887096244
aF-9.340051552345159
aF-9.34164944503594
aF-9.340749542098495
aF-9.334976951167517
aF-9.332337918483987
aF-9.330903665010789
aF-9.330639129139113
aF-9.328644551496602
aF-9.330691270028213
aF-9.329845521524085
aF-9.3250315431117
aF-9.325331045251332
aF-9.316411286162415
aF-9.306615504790965
aF-9.304459016747893
aF-9.30327416141921
aF-9.301169904800386
aF-9.298644850581988
aF-9.298863459428668
aF-9.29461392787215
aF-9.283545248105515
aF-9.276418177823649
aF-9.270083433966963
aF-9.265437684768894
aF-9.26163293537877
aF-9.257347340142914
aF-9.255931233321128
aF-9.253343914622713
aF-9.252858579203586
aF-9.601835966036928
aF-9.598888933850288
aF-9.60809459848951
aF-9.610035490680595
aF-9.611994386547766
aF-9.291840792239514
aF-9.293338168951689
aF-9.294858868804836
aF-9.295511379871867
aF-9.29706717954541
aF-9.298191028115285
aF-9.30025351547354
aF-9.301885258103828
aF-9.303065825744364
aF-9.30474396818049
aF-9.306449813555805
aF-9.307189568263361
aF-9.308435314418007
aF-9.309696743136312
aF-9.310462649588896
aF-9.311750348174067
aF-9.313578143061907
aF-9.314375526367062
aF-9.316249826858476
aF-9.317611883972148
aF-9.318991878205164
aF-9.320948569162578
aF-9.322372409913749
aF-9.323815422209456
aF-9.325860111690465
aF-9.327350008828558
aF-9.328860427463862
aF-9.32858617517707
aF-9.324778007199283
aF-9.321638113476206
aF-9.320805032593993
aF-9.319415700798334
aF-9.318593098264289
aF-9.320568123614182
aF-9.317509602830787
aF-9.31397981587516
aF-9.313718748487476
aF-9.294870027183329
aF-9.294171640678742
aF-9.29393059013421
aF-9.293235501632877
aF-9.295743985833518
aF-9.291406051890633
aF-9.259116426759741
aF-9.252878276142503
aF-9.248771173529047
aF-9.245400039636358
aF-9.242145588724245
aF-9.23979796396749
aF-9.238029214828769
aF-9.574289191070028
aF-9.576041656386186
aF-9.580141169246778
aF-9.581944686172317
aF-9.586155995911506
aF-9.281798866067046
aF-9.281160350291657
aF-9.282990136924163
aF-9.284433055662316
aF-9.285471502535577
aF-9.286522248165657
aF-9.288021985501064
aF-9.289102767857091
aF-9.291094231948486
aF-9.292211349965735
aF-9.293342185874812
aF-9.294953920382342
aF-9.296118276236351
aF-9.296819575145756
aF-9.298491054251919
aF-9.299700035854622
aF-9.300924464060909
aF-9.301664316331733
aF-9.302914604862893
aF-9.304693446456199
aF-9.305982718804541
aF-9.306764261796497
aF-9.30861265046928
aF-9.310494074793107
aF-9.311860183864098
aF-9.314359637474917
aF-9.315777338417034
aF-9.317214656510082
aF-9.317514089694011
aF-9.3132726099707
aF-9.311341665287575
aF-9.3105242831371
aF-9.307557252913801
aF-9.30836159642573
aF-9.308632426856674
aF-9.30517368413749
aF-9.30283106081778
aF-9.3025688474192
aF-9.286496076242868
aF-9.284920994251268
aF-9.284677982394118
aF-9.285318225490073
aF-9.285963720670576
aF-9.28842848837995
aF-9.249537798391165
aF-9.243311123208947
aF-9.237757884745243
aF-9.233050010839019
aF-9.230070236541327
aF-9.227431234204355
aF-9.224171383630528
aF-9.222614089930081
aF-9.549150362213584
aF-9.550788876420153
aF-9.283115130118304
aF-9.27086843373008
aF-9.272206324654217
aF-9.273165267762968
aF-9.274539564073141
aF-9.276347261414813
aF-9.27735391110112
aF-9.279219064547732
aF-9.280259482968042
aF-9.281312625348718
aF-9.282818851046168
aF-9.283903113710819
aF-9.285000912438248
aF-9.285657219811236
aF-9.286777623818505
aF-9.287448362791716
aF-9.289061376497825
aF-9.289750489601559
aF-9.291404241347868
aF-9.293086778358058
aF-9.294302616738921
aF-9.295034493800435
aF-9.296782861129135
aF-9.298047918163585
aF-9.29985104582888
aF-9.30168698666915
aF-9.303017612428757
aF-9.305460957071823
aF-9.305734485571424
aF-9.303815615939953
aF-9.300857415948462
aF-9.300056445412825
aF-9.2976965940918
aF-9.297945164527547
aF-9.296643039542545
aF-9.292837765444192
aF-9.291583994532928
aF-9.290341231010533
aF-9.275944603478607
aF-9.275273571445355
aF-9.278040845954632
aF-9.277792272151645
aF-9.285219712999204
aF-9.283107895721605
aF-9.22749787010423
aF-9.222378320817297
aF-9.218925024003513
aF-9.21561527051131
aF-9.213284228147417
aF-9.210609794523924
aF-9.521964002964463
aF-9.269029646250747
aF-9.265248624517652
aF-9.264628765947979
aF-9.264394796646535
aF-9.266490758822695
aF-9.260167476562533
aF-9.261422512384271
aF-9.262697134780126
aF-9.26399180586957
aF-9.265307002424786
aF-9.266247623256483
aF-9.26800095582545
aF-9.269380744890393
aF-9.270369380766628
aF-9.270953561270806
aF-9.272383449569805
aF-9.273409341875462
aF-9.274448121987906
aF-9.275064193385091
aF-9.276565329412978
aF-9.27719828893474
aF-9.278737102791087
aF-9.280302585249498
aF-9.28096557912046
aF-9.282101779417186
aF-9.283728126657198
aF-9.284900449417945
aF-9.286577466700201
aF-9.287787642773534
aF-9.289517754740483
aF-9.290767627034418
aF-9.293597821805395
aF-9.294372614286825
aF-9.292519532634982
aF-9.290692092626854
aF-9.28939636560046
aF-9.287611119508414
aF-9.286344081260294
aF-9.28411290276203
aF-9.281921512502882
aF-9.280707845377387
aF-9.266781829977683
aF-9.265713590541905
aF-9.267111702378935
aF-9.271092777468988
aF-9.269552149500651
aF-9.276345718376314
aF-9.212853064813427
aF-9.209196625429264
aF-9.205913875160828
aF-9.202579533427532
aF-9.200696344822024
aF-9.254551114470493
aF-9.249340658076225
aF-9.245059485430948
aF-9.244836436809457
aF-9.245607006700789
aF-9.246050510591726
aF-9.246160730881376
aF-9.247287682722023
aF-9.24877809388673
aF-9.251006461347744
aF-9.253296408927898
aF-9.257163334069471
aF-9.258071545091438
aF-9.258990885908236
aF-9.259528396001276
aF-9.26126297747093
aF-9.262221449414476
aF-9.263191987457695
aF-9.264174820892087
aF-9.265170184855807
aF-9.26617832052121
aF-9.267628693256645
aF-9.268668162272077
aF-9.270162581233674
aF-9.270343625969076
aF-9.271869430261063
aF-9.273422504758118
aF-9.274538474276662
aF-9.27520088676501
aF-9.276816211223883
aF-9.278461269412338
aF-9.286212056007264
aF-9.283356886473902
aF-9.281563894406244
aF-9.279795943506201
aF-9.278538698824871
aF-9.27633309574159
aF-9.274167630049181
aF-9.272501737593332
aF-9.270858275828123
aF-9.269685906808006
aF-9.256780497803133
aF-9.257322274715865
aF-9.262798994686307
aF-9.262540189528798
aF-9.271070661971194
aF-9.268981591510586
aF-9.204067970552956
aF-9.199642048967762
aF-9.196410003705644
aF-9.193324950885641
aF-9.190717570155352
aF-9.246299849943616
aF-9.24124239950837
aF-9.23550595611483
aF-9.233118761687141
aF-9.234125394733342
aF-9.234212115793667
aF-9.23492284279079
aF-9.235641621668941
aF-9.237009671708524
aF-9.239061666399166
aF-9.240831852488991
aF-9.241615162822104
aF-9.244147626826578
aF-9.246762345292481
aF-9.247979560567524
aF-9.249216869751175
aF-9.25009632503116
aF-9.250605710142224
aF-9.251888519528093
aF-9.253193089395813
aF-9.254122397527743
aF-9.254663231023663
aF-9.255612074870438
aF-9.256983111995803
aF-9.258378222958989
aF-9.33151026015182
aF-9.31966842906428
aF-9.315011188057554
aF-9.302601595464914
aF-9.29251391552872
aF-9.284860502286584
aF-9.28028159267475
aF-9.276384773725804
aF-9.273107752103849
aF-9.27136228486823
aF-9.269167147895173
aF-9.267012983062225
aF-9.264898653860897
aF-9.26193565601349
aF-9.260349086892127
aF-9.2587839284469
aF-9.248001334514914
aF-9.246987707383983
aF-9.250594012842877
aF-9.255601750184429
aF-9.253685930087475
aF-9.262863218097197
aF-9.259921356884927
aF-9.329509891328534
aF-9.285918590686212
aF-9.190981411746478
aF-9.187269089304658
aF-9.184580219535723
aF-9.182318214150287
aF-9.228903316720768
aF-9.224188771534116
aF-9.22338777390776
aF-9.223743505614998
aF-9.224101898935539
aF-9.22446298385316
aF-9.224532181700658
aF-9.225193350683629
aF-9.227071034851337
aF-9.22868795697547
aF-9.230661730632848
aF-9.233680229229924
aF-9.236134923156738
aF-9.236923070810318
aF-9.23807148896261
aF-9.23888320399009
aF-9.240064939609457
aF-9.322519089942022
aF-9.322939669910998
aF-9.3778344378878
aF-9.369352421035604
aF-9.366695113072831
aF-9.30518220892095
aF-9.300081170014264
aF-9.294544484747169
aF-9.296773211815106
aF-9.275518207830293
aF-9.27000388183136
aF-9.266708047645226
aF-9.263508768589697
aF-9.262269573626291
aF-9.258285050908224
aF-9.256208215489547
aF-9.252446822429494
aF-9.250063339442825
aF-9.248550571561593
aF-9.247058310659117
aF-9.237240979460898
aF-9.241051402102217
aF-9.248695218705093
aF-9.247599853726545
aF-9.257695837418959
aF-9.253388002709743
aF-9.306921690107242
aF-9.300875502090124
aF-9.269777543605372
aF-9.268429274681605
aF-9.179719461492242
aF-9.176260860378472
aF-9.173865852375037
aF-9.421860396895093
aF-9.212729601171025
aF-9.212508615481697
aF-9.21417767308712
aF-9.21368117075167
aF-9.213457704913239
aF-9.213778819943158
aF-9.214377827687526
aF-9.219879871760954
aF-9.220542202953604
aF-9.221516841629565
aF-9.670157565763905
aF-9.669221380469011
aF-9.30373215723306
aF-9.303362987626016
aF-9.35336287712212
aF-9.351845230937228
aF-9.34618401668
aF-9.2798508022072
aF-9.274865805227837
aF-9.275106253580109
aF-9.275348031806649
aF-9.269995475407748
aF-9.261836319216869
aF-9.257117467874066
aF-9.253989954176776
aF-9.250954740481863
aF-9.24714048847637
aF-9.244723670919045
aF-9.240336886325613
aF-9.238081754344567
aF-9.236260192518566
aF-9.227974271520525
aF-9.228760588960377
aF-9.243432998823474
aF-9.241491823432114
aF-9.239587049858127
aF-9.247282401030226
aF-9.244395858105975
aF-9.331225739510822
aF-9.28236152333518
aF-9.27828625861613
aF-9.257109676761472
aF-9.25484624168993
aF-9.253102507073606
aF-9.254710618758628
aF-9.168151206895457
aF-9.165929727535186
aF-9.398317389074933
aF-9.399272196623949
aF-9.204728823176227
aF-9.204761020701282
aF-9.20479334004577
aF-9.204567337756325
aF-9.204858346968972
aF-9.205675644425872
aF-9.207040947146552
aF-9.208713504883239
aF-9.635390323219411
aF-9.625564897866136
aF-9.283851475563505
aF-9.284809112616566
aF-9.328469031490606
aF-9.333939562481328
aF-9.267889733669483
aF-9.262545247322079
aF-9.257462452938992
aF-9.254602276487985
aF-9.254782372523538
aF-9.253961032247064
aF-9.251185090669583
aF-9.247079207433526
aF-9.243140225502204
aF-9.238933073618727
aF-9.235723849077957
aF-9.232622468979226
aF-9.228113670199551
aF-9.22598938524248
aF-9.218753440095586
aF-9.217499959355688
aF-9.236978409031314
aF-9.234201050432763
aF-9.241563224716066
aF-9.237774851901483
aF-9.234546007089728
aF-9.306773135747516
aF-9.263600750681029
aF-9.261001198709844
aF-9.260656526044409
aF-9.158656031294214
aF-9.370450880642604
aF-9.374019416657916
aF-9.377686344988396
aF-9.3818036766688
aF-9.380685125551057
aF-9.386078150425488
aF-9.393261922329346
aF-9.194040367535974
aF-9.395291285020841
aF-9.396321064993426
aF-9.397361111419462
aF-9.628633699700114
aF-9.613703509925625
aF-9.586909307041674
aF-9.585965727540508
aF-9.265641152932146
aF-9.266481773279997
aF-9.248174060166031
aF-9.24586575143618
aF-9.244086108356049
aF-9.24280773909644
aF-9.241076728239864
aF-9.238917747096453
aF-9.243740217308355
aF-9.237830038276192
aF-9.234857850444381
aF-9.234112001463021
aF-9.232515628323117
aF-9.23052722398315
aF-9.228173758362411
aF-9.22509580365872
aF-9.221748209019545
aF-9.218528565051628
aF-9.215085387914295
aF-9.209200782833053
aF-9.217031491566475
aF-9.235035117770959
aF-9.231653060914574
aF-9.24231785550529
aF-9.237705181277391
aF-9.229440576800421
aF-9.287414617131763
aF-9.286216246237961
aF-9.245785309724152
aF-9.24341189622657
aF-9.243571774373327
aF-9.524862455133897
aF-9.346782692343066
aF-9.347500645285866
aF-9.35078688200424
aF-9.351536432671203
aF-9.352292904056531
aF-9.355723365602971
aF-9.356513761997812
aF-9.35731162868187
aF-9.358117072064138
aF-9.360323805089601
aF-9.364004917049181
aF-9.360579957242594
aF-9.360004518479753
aF-9.369590740347236
aF-9.556361792080889
aF-9.54385159502313
aF-9.539188117955277
aF-9.557420025442555
aF-9.247110996628512
aF-9.248376845920616
aF-9.232682215734988
aF-9.230099101331385
aF-9.228018245004188
aF-9.226406629223487
aF-9.224403874734932
aF-9.222850694766892
aF-9.221321935185706
aF-9.220212236645988
aF-9.21911404918385
aF-9.217641673166957
aF-9.21469561307445
aF-9.212209662641664
aF-9.210145112048764
aF-9.207791607204408
aF-9.205178369699922
aF-9.201712076738024
aF-9.199901305809759
aF-9.203357998165922
aF-9.216786525226746
aF-9.21764373717172
aF-9.218117578434915
aF-9.218596452389118
aF-9.223644609683431
aF-9.222890648240602
aF-9.26734895374753
aF-9.26905829950163
aF-9.263736064888134
aF-9.228736971439165
aF-9.226121892172266
aF-9.22623123249182
aF-9.483166436663142
aF-9.48539468722975
aF-9.319499129996919
aF-9.321220126403967
aF-9.322972327041139
aF-9.323588397589038
aF-9.326573798368225
aF-9.32842487828896
aF-9.330310783932347
aF-9.330984824251708
aF-9.332922147171027
aF-9.333618398648346
aF-9.33560934473431
aF-9.336328824346422
aF-9.33064235431484
aF-9.51857951340031
aF-9.496467820647295
aF-9.498906724002252
aF-9.519342036468926
aF-9.22891211984883
aF-9.23049030632555
aF-9.217272671425484
aF-9.20989000237341
aF-9.208823220192636
aF-9.207767678815234
aF-9.206723201503944
aF-9.20497656352731
aF-9.20396265579482
aF-9.204004780823574
aF-9.203695769116937
aF-9.203038012340643
aF-9.195504771942344
aF-9.193379611954327
aF-9.192197182193988
aF-9.202536595103245
aF-9.202926513849333
aF-9.203676450559232
aF-9.204438334940305
aF-9.20304703082754
aF-9.205259516752854
aF-9.204208913035314
aF-9.204985347078162
aF-9.205032050204505
aF-9.242474374212717
aF-9.210661312556862
aF-9.209520988844833
aF-9.208787662238903
aF-9.438697525013028
aF-9.443384244411568
aF-9.448214496339524
aF-9.293692183926638
aF-9.296194224886623
aF-9.297719547075106
aF-9.300334598559845
aF-9.30085469267992
aF-9.303562743471314
aF-9.303003467912443
aF-9.305780700759765
aF-9.306344145543797
aF-9.30691299220709
aF-9.307487318807482
aF-9.309233767769777
aF-9.30406435268761
aF-9.288763490452036
aF-9.450749808473459
aF-9.449820902398931
aF-9.451875152749524
aF-9.212239243665802
aF-9.211458767677826
aF-9.191113242832321
aF-9.18803856001738
aF-9.186258099698346
aF-9.186843902198035
aF-9.186545689415105
aF-9.19115791881739
aF-9.191166993768558
aF-9.191822270761142
aF-9.189909638680565
aF-9.188353551969309
aF-9.188355293766914
aF-9.188357044551879
aF-9.188670386426958
aF-9.188986995592677
aF-9.18899042028751
aF-9.188993862930976
aF-9.188680802441855
aF-9.186507757643524
aF-9.185593861106295
aF-9.184392619015872
aF-9.183793929976945
aF-9.184079166691257
aF-9.186492482151262
aF-9.189346300375245
aF-9.221126061725858
aF-9.218669383366905
aF-9.194147606720106
aF-9.192757039425935
aF-9.191732146567563
aF-9.397311259278094
aF-9.401373801593389
aF-9.402997508516727
aF-9.266364146553753
aF-9.270260679361114
aF-9.272466767109073
aF-9.27378896895422
aF-9.275135586991613
aF-9.255556234244823
aF-9.259054647840294
aF-9.27734292172734
aF-9.279766143916566
aF-9.281228718971345
aF-9.2816815128913
aF-9.281103288992503
aF-9.253605447349766
aF-9.256279945480216
aF-9.35222447332505
aF-9.357088523923299
aF-9.356295305019918
aF-9.355502086116536
aF-9.19456276146859
aF-9.19384105613239
aF-9.172056624940787
aF-9.170760352289529
aF-9.169977523836446
aF-9.169689380690938
aF-9.169157760185712
aF-9.169602192975454
aF-9.171567124860522
aF-9.172563889844318
aF-9.174667843384979
aF-9.175462339960625
aF-9.17432694679839
aF-9.173208949380877
aF-9.173171910653648
aF-9.173676076763112
aF-9.173367862278386
aF-9.17252141715819
aF-9.172214784840078
aF-9.171642674100903
aF-9.17029146855789
aF-9.168715241071798
aF-9.16816614682272
aF-9.167127181929718
aF-9.166831185734331
aF-9.166535189538944
aF-9.167468836097957
aF-9.172949932268766
aF-9.199909084818694
aF-9.197346706432981
aF-9.177512624785276
aF-9.176272016032339
aF-9.175940724605804
aF-9.355924993543162
aF-9.357184236853055
aF-9.358462471748737
aa(lp3
F-0.11094693885081466
aF-1.29748299594105
aF-1.2562197937152193
aF-1.2064522213408462
aF-1.164092151035773
aF-1.113911948677568
aF-1.0841500691358605
aF-1.039288148250064
aF-0.9873866554105704
aF-0.9593629808550268
aF-0.9056179149320887
aF-0.8625157997317532
aF-0.8127668747627792
aF-0.7621018532055932
aF-0.7189646863980048
aF-0.6616573334728355
aF-0.6076105375681589
aF-0.5553394751288987
aF-0.49635664259799595
aF-0.4390873393634781
aF-0.38067960196257955
aF-0.32109914387725946
aF-0.26031028780596505
aF-0.19760324519000347
aF-0.13361534745514486
aF-0.10073502231627696
aF-0.0906075806454783
aF-0.077685375527381
aF1.8264528592442177
aF-1.041467580300003
aF-0.9958484246231978
aF-0.9554728790973661
aF-0.913650319547884
aF-0.8648134535964962
aF-0.8150854905848919
aF-0.7690991703211218
aF-0.7128569043661144
aF-0.6640637667915944
aF-0.6100399745984668
aF-0.554973359299805
aF-0.4965598005841615
aF-0.438146241868518
aF-0.38320562665727903
aF-0.32305029737871893
aF-0.2628875447880904
aF-0.1388753906305088
aF-0.1629921037116263
aF-0.09319200727878879
aF-0.08957971862621766
aF-0.07685036267843634
aF1.719093989405406
aF1.6994606877311564
aF1.7841761857888905
aF1.8670827742285638
aF1.8852509889400384
aF-1.2184866576580233
aF-1.1474499980289294
aF-1.0503971344687044
aF-1.004457854963093
aF-0.9577098611736159
aF-0.9278362003943119
aF-0.8726201534006581
aF-0.822506212941081
aF-0.7714608788246249
aF-0.7152186128696175
aF-0.6626881276199911
aF-0.612469411628775
aF-0.5574262440830918
aF-0.49901268536744836
aF-0.4440896690712225
aF-0.3857316513519785
aF-0.32620191122870684
aF-0.2654873794780819
aF-0.20348321526497568
aF-0.1619689612784217
aF-0.15293500844131774
aF-0.14382911155504902
aF-0.13455761279145645
aF-0.1247846698636704
aF-0.11462778239513688
aF-0.10370321607357047
aF-0.0918324360670478
aF-0.08077026449870783
aF-0.07470482494509748
aF-0.060337371551293345
aF1.6429724321279666
aF1.6713727020556923
aF1.6949445005758053
aF1.717519717953128
aF1.8018062052921686
aF1.8644521637731972
aF-1.1346835812823346
aF-1.1197628501987473
aF-1.0525954179996015
aF-1.0066753189405413
aF-0.9661335213225684
aF-0.9182044546155461
aF-0.8749387692227706
aF-0.824846176722424
aF-0.7738225873281279
aF-0.7261839863542813
aF-0.6727540172274554
aF-0.6148988486590831
aF-0.5598791288663787
aF-0.50378701127804
aF-0.4448041787471373
aF-0.38825767604667794
aF-0.3287532949044305
aF-0.2679940610572089
aF-0.20608687568633638
aF-0.1723858773713639
aF-0.16281851480777965
aF-0.1541980585947464
aF-0.14492547552316282
aF-0.13546363842496773
aF-0.12571869670186958
aF-0.11533489380357975
aF-0.10498748631017152
aF-0.0937868273421352
aF-0.08186681912019952
aF-0.0690839766611345
aF-0.057512834438268295
aF1.3682951966898529
aF1.4462776217986375
aF1.5015211314573802
aF1.5553767989968403
aF1.7574456171726545
aF1.757345701619895
aF1.8187210882978415
aF-1.0413334801135075
aF-1.0154558276424095
aF-0.9683903681450823
aF-0.9204815221493772
aF-0.877257385044883
aF-0.8220413380512293
aF-0.776184295831631
aF-0.7242256641486677
aF-0.6674558499268162
aF-0.6173282856893911
aF-0.5623320136496657
aF-0.5062638008380548
aF-0.4490919987789669
aF-0.3920639124273758
aF-0.3313046785801542
aF-0.2706947003208032
aF-0.20869053610769706
aF-0.17235065067331173
aF-0.1631049469428437
aF-0.1548565083781216
aF-0.1458009779712956
aF-0.13636326795119452
aF-0.12616565455535747
aF-0.11603952677456972
aF-0.10570898876119691
aF-0.09453052682155613
aF-0.08295563259095232
aF-0.06988510865228945
aF-0.05573236787889008
aF-0.03903931958108103
aF1.4881359051990366
aF1.4545830530783648
aF1.5595192273726628
aF1.6594945051916687
aF1.6197502315865537
aF1.687289823668532
aF1.689456039248949
aF1.7332496656735703
aF1.7979032789098284
aF-1.050185308499759
aF-1.0176928097186593
aF-0.9706472149675962
aF-0.9287209232064979
aF-0.8852505364579115
aF-0.8295261042851103
aF-0.7785460043351342
aF-0.7223037383801267
aF-0.6776128912880716
aF-0.6197577227196992
aF-0.5647848984329525
aF-0.5063713397173091
aF-0.4515931636328391
aF-0.3933097254360769
aF-0.33315439615751685
aF-0.27319657271659203
aF-0.2112941965290578
aF-0.17317852159926722
aF-0.16431611270915641
aF-0.1557072035931134
aF-0.14625431398188743
aF-0.13681180345893235
aF-0.12709156723896792
aF-0.11674169431575857
aF-0.10615360083342593
aF-0.09527161962171624
aF-0.08340416809869014
aF-0.07068338257435539
aF-0.05656932344334606
aF-0.03951293111949744
aF1.461957537510646
aF1.4950552140952829
aF1.5265105431847086
aF1.5564428082423338
aF1.6070651038044073
aF1.6340665897647884
aF1.638132515545697
aF1.6844537212065378
aF-1.0591902685922927
aF-1.0133277108728864
aF-0.9729040617901099
aF-0.9310185770712409
aF-0.8818946166891082
aF-0.8318660680664534
aF-0.7809077128386372
aF-0.7334032863105577
aF-0.6760959333853885
aF-0.6221871597500073
aF-0.5672377832162394
aF-0.5112173799580841
aF-0.4522345474271814
aF-0.3958357501307764
aF-0.3364074459316016
aF-0.27590202116352464
aF-0.21389785695041846
aF-0.17383094863049176
aF-0.16514918652062494
aF-0.15597247394766775
aF-0.14691518403056292
aF-0.13748232323878973
aF-0.12753695849761554
aF-0.11718630638798758
aF-0.10659821290565491
aF-0.09571701088036386
aF-0.08416877990262489
aF-0.07147881369450568
aF-0.05665550656329468
aF-0.03998654265791382
aF1.4148318386496817
aF1.469776421906049
aF1.5014658166996389
aF1.575626072966199
aF1.5604027206337383
aF1.6569344353147812
aF1.6816176187445433
aF2.7166063378952434
aF-1.0683523687018668
aF-1.0155451748503348
aF-0.9815393313135674
aF-0.9333162309359839
aF-0.8899304640205978
aF-0.8342060318477966
aF-0.7832694213421403
aF-0.7313772476089053
aF-0.6746074333870536
aF-0.6246165967803153
aF-0.5696906679995264
aF-0.5112771092838828
aF-0.45471133698719607
aF-0.39703218199198076
aF-0.33820644554691576
aF-0.27835108668084285
aF-0.21744036191288207
aF-0.17397418191606168
aF-0.16561756102728115
aF-0.1566253398158941
aF-0.14757370478121679
aF-0.137708874474408
aF-0.1279823497562632
aF-0.11737570055051261
aF-0.10676905134476206
aF-0.09616240213901148
aF-0.08493070230284194
aF-0.07261028507294004
aF-0.057863148748589444
aF-0.0392075508933539
aF1.3346084632040804
aF1.411598879968633
aF1.4665840728482409
aF1.5202050492160286
aF1.5502899699816761
aF1.5574341065126789
aF1.584952185152038
aF1.6112419242005704
aF1.7006980962513814
aF2.954311840613414
aF3.0525459383253195
aF-1.0705698326793152
aF-1.0244037559474088
aF-0.9774177554351378
aF-0.9417478953269869
aF-0.8865318483333331
aF-0.8365459956291397
aF-0.7856311298456435
aF-0.7382161529480754
aF-0.6849012023789958
aF-0.6270460338106234
aF-0.5751537916090164
aF-0.5137299940671698
aF-0.45909665819445566
aF-0.39953334684585295
aF-0.34073247024161524
aF-0.2807509794358274
aF-0.21910517779313987
aF-0.15669943868074548
aF-0.13749150578406794
aF-0.12771510515331694
aF-0.11730952951606419
aF-0.1061128287660005
aF-0.09453797396534952
aF-0.08348061129616058
aF-0.07204339060613088
aF1.408365921287584
aF1.4419720651410048
aF1.4952375858532212
aF1.5472135508513472
aF1.5979462301612501
aF1.62516074740161
aF1.6084058217385762
aF1.6759454138205547
aF2.8988625269388915
aF2.9955276568983304
aF3.2610612784546937
aF-1.0727872966567635
aF-1.0266407380236586
aF-0.9860934663812295
aF-0.93791153866547
aF-0.8946103915832841
aF-0.8388859594104829
aF-0.7879928383491466
aF-0.7406225862668343
aF-0.6793751556938787
aF-0.6294754708409315
aF-0.5716203022725591
aF-0.5161828788504567
aF-0.46356915349343486
aF-0.40341382421487476
aF-0.3440615969587727
aF-0.28350560064509367
aF-0.22213021396714713
aF-0.16510717589024523
aF-0.15618963761586202
aF-0.14618818042190906
aF-0.13882555911143002
aF-0.1284004438227969
aF-0.11750014177696408
aF-0.10793204912234194
aF-0.09792245612642234
aF-0.08134560375866629
aF-0.07008465282156032
aF-0.05539761491904968
aF-0.002964474570119835
aF1.4051329626065354
aF1.4388193181566649
aF1.4921234704300121
aF1.5014144244803658
aF1.55149687827056
aF1.6004228356888484
aF1.6703018486844934
aF1.6731093113585602
aF2.7970466257295503
aF3.044295904299814
aF3.0881336534722106
aF-1.0750047606342117
aF-1.02219756678268
aF-0.9883705339150606
aF-0.9463851269712118
aF-0.8969503553646274
aF-0.841225923191826
aF-0.7903545468526496
aF-0.7430290195855931
aF-0.6857216666604238
aF-0.6319049078712395
aF-0.577049322349387
aF-0.5186357636337435
aF-0.4621417056672401
aF-0.40593984890957424
aF-0.3457845196310142
aF-0.2860828576272191
aF-0.22390934974366855
aF-0.16503133767062483
aF-0.15547140715708527
aF-0.14558222994817072
aF-0.1349792467511318
aF-0.11871187432645547
aF-0.09178895882510307
aF-0.08147607383508995
aF-0.0691411480064226
aF-0.05548290929204722
aF-0.0018616002839825785
aF1.4019000039254867
aF1.4356665711723249
aF1.4677981644564109
aF1.5194806675294015
aF1.5485282641495006
aF1.5974884969596754
aF1.6027336168145874
aF1.6489342813867236
aF2.7940791302083356
aF2.890744260167774
aF3.040170887287062
aF3.194528219365805
aF-1.0843867044924522
aF-1.0379333618256175
aF-0.9906476014488916
aF-0.9425068463949557
aF-0.8992903191459705
aF-0.8435658869731693
aF-0.7927162553561526
aF-0.7454354529043519
aF-0.6881280999791827
aF-0.6343343449015476
aF-0.5795022071326739
aF-0.5210886484170305
aF-0.46660015275607225
aF-0.40703684140746954
aF-0.3483105443257136
aF-0.2884051304629984
aF-0.22728472793139792
aF-0.17489960408761152
aF-0.1664202277117584
aF-0.1559415144246586
aF-0.1456167270764286
aF-0.1352090875447136
aF-0.12738263535757216
aF-0.1194093667491326
aF-0.10882127326679994
aF-0.09193910662699242
aF-0.0806154744070467
aF-0.06889627574323517
aF-0.055568518630684044
aF-0.014544935432693251
aF1.3216766284798855
aF1.398667045244438
aF1.411734983317034
aF1.4858952395835945
aF1.5164410429816826
aF1.5669378161686287
aF1.5733488020107806
aF1.6209238627520335
aF1.6674371064345714
aF2.7891796570406675
aF3.036045870274309
aF3.1342799679862137
aF-1.0794396885891084
aF-1.0401902086481314
aF-0.9929246689827227
aF-0.9386980624200254
aF-0.8958063116217829
aF-0.8459058507545123
aF-0.7950779638596559
aF-0.7432965533759679
aF-0.694618950500228
aF-0.6367637819318557
aF-0.5789086133634833
aF-0.5235415332003173
aF-0.46709528478726947
aF-0.4109918982989732
aF-0.3508365690204131
aF-0.29095651413872214
aF-0.22986198491352333
aF-0.1675156552654765
aF-0.16617010504107024
aF-0.15601486253284352
aF-0.14565147850952165
aF-0.13567318552293767
aF-0.12807710818510615
aF-0.1206026962198897
aF-0.11033601905121684
aF-0.09208980080767076
aF-0.08041250902170563
aF-0.0682922679014033
aF-0.054495949047247055
aF-0.01867047995885232
aF1.3184436697988369
aF1.3745989976418331
aF1.408620867893825
aF1.4827811241603857
aF1.4924033253687732
aF1.5425910359073818
aF1.5704479562254663
aF1.5970614118905986
aF1.6433246762194815
aF2.833170646645724
aF2.979291123356096
aF3.1301549509734614
aF-1.0888606686449518
aF-1.0424470554706453
aF-0.9952017365165537
aF-0.9533409744375494
aF-0.9039702467086568
aF-0.8536819383181662
aF-0.7974396723631589
aF-0.7456804145293805
aF-0.6929409666167003
aF-0.6391932189621637
aF-0.5813380503937914
aF-0.5259944179836042
aF-0.4675808592679608
aF-0.4135179229936726
aF-0.3533625937151126
aF-0.29350789781444586
aF-0.23243924189564874
aF-0.1701193156868372
aF-0.17451141633992495
aF-0.16573169584679207
aF-0.1560887573920673
aF-0.14611985301617786
aF-0.1359047163303492
aF-0.12924551795324918
aF-0.12104498700516297
aF-0.11024587965474289
aF-0.09161529755984446
aF-0.08054294286721828
aF-0.06768156881924672
aF-0.05182233360211416
aF1.2760478560379376
aF1.3714066485840248
aF1.4055067524706162
aF1.4379754803498341
aF1.4893996256649091
aF1.5188064677765125
aF1.5675471104401522
aF1.5942253094286043
aF1.6617649015105826
aF1.6240010537636616
aF2.734029832870576
aF2.8291753254221996
aF2.975231989970537
aF3.181948995461224
aF-1.0910976507212016
aF-1.044703902293159
aF-0.9974788040503848
aF-0.9493998079891848
aF-0.9004435432660081
aF-0.8505857783171986
aF-0.799801380866662
aF-0.748064275682793
aF-0.6912944614609413
aF-0.6380400470102898
aF-0.5837674874240995
aF-0.5284473027668911
aF-0.4720488639072989
aF-0.4145403359690861
aF-0.35588861840981206
aF-0.2963918855557207
aF-0.23501649887777415
aF-0.17178583308410628
aF-0.10913987460307803
aF-0.16528489782250083
aF-0.1561632051385829
aF-0.14658822752283404
aF-0.13660138147938578
aF-0.12704175788920866
aF-0.1174265260514894
aF-0.10631106144144936
aF-0.09301461911505396
aF-0.08033859308142599
aF-0.0670640666884259
aF1.29219096960885
aF1.3682142995262168
aF1.3822299398008162
aF1.4349358558021152
aF1.4659585526552723
aF1.5366538076652627
aF1.5440177380516287
aF1.5709208614258934
aF1.6169644710214228
aF2.8272026238122416
aF2.8251800041986748
aF2.9711728565849786
aF3.067837986544417
aF-1.0933346327974514
aF-1.046960749115673
aF-0.9997558715842159
aF-0.9516974618539278
aF-0.9027621590881205
aF-0.8529257420985419
aF-0.802163089370165
aF-0.7504481368362055
aF-0.6936783226143539
aF-0.6440520930227799
aF-0.5861969244544075
aF-0.530900187550178
aF-0.47452565346731357
aF-0.4170415008229583
aF-0.3574781894743556
aF-0.29933496495577094
aF-0.23759375585989956
aF-0.17441644353947278
aF-0.11018603306587779
aF-0.15603689405497273
aF-0.1464105563633016
aF-0.13683461038021896
aF-0.127500826000599
aF-0.11735911105700189
aF-0.10620351340768683
aF-0.0931675484084829
aF-0.08013273687636874
aF-0.0657019507942633
aF1.2889986205510418
aF1.3650219504684085
aF1.3791535206704872
aF1.4318962312543961
aF1.4629899385342129
aF1.4728478309491122
aF1.5617454188695234
aF1.5681160588422722
aF1.5939177658731105
aF2.727161976200241
aF2.96711372319942
aF3.1177798999352033
aF-1.0955716148737014
aF-1.0422996125574073
aF-1.0087119698697007
aF-0.9539951157186708
aF-0.9109901380526861
aF-0.8552657058798849
aF-0.7995412737070837
aF-0.7438168415342823
aF-0.6960621837677663
aF-0.6428529136478076
aF-0.5886263614847156
aF-0.533353072333465
aF-0.4770024430273283
aF-0.4195426656768305
aF-0.36094066779921097
aF-0.3011620488416169
aF-0.23969301247586758
aF-0.17793029695091928
aF-0.11440109551381106
aF-0.15509062356197562
aF-0.1457930843721239
aF-0.13590156698264977
aF-0.1262272027125277
aF-0.11596327191630212
aF-0.10437317153509468
aF-0.09143842990889431
aF-0.07821389401097859
aF1.2858062714932337
aF1.3416698521756014
aF1.3760771015401583
aF1.428856606706677
aF1.4600213244131535
aF1.4897631687067796
aF1.538281520453741
aF1.5653112562586513
aF1.6114160989629722
aF2.8171893617516255
aF3.015420785210546
aF3.113654882922451
aF-0.49591045185279925
aF-0.4867311017416399
aF-0.4769727162416464
aF-0.46745475035258643
aF-0.4573789524330052
aF-0.4467908759557011
aF-0.4364162428837285
aF-0.4258784259227475
aF-0.41517354444389915
aF-0.40373637760524234
aF-0.3927250496419572
aF-0.38129697646421523
aF-0.36994628055026746
aF-0.35821462655990094
aF-0.3463380212112711
aF-0.3341668399062844
aF-0.322139076262041
aF-0.30990899984733283
aF-0.29732699616330793
aF-0.28463827730169594
aF-0.27187817915880896
aF-0.25889789456383205
aF-0.2457298181560256
aF-0.23238908742365866
aF-0.21896971111132343
aF-0.20504699687426253
aF-0.19113555637737423
aF-0.17684201165834706
aF-0.15562170891150678
aF-0.14538652153572887
aF-0.13566360065657918
aF-0.12568539599176218
aF-0.1148050142047746
aF-0.10337744094072165
aF-0.09063274425705167
aF-0.07659735270304371
aF1.2826139224354254
aF1.3188900345112204
aF1.3930502907777806
aF1.405854035753461
aF1.457052710292094
aF1.4868623229214653
aF1.495712244048684
aF1.5625064536750302
aF1.5884293045462543
aF2.7194149113404085
aF2.9589954564283025
aF3.1095298659096984
aF-0.49681761697986554
aF-0.4872082701862842
aF-0.477859462430282
aF-0.4675499661544758
aF-0.45824330600781293
aF-0.44728282283174103
aF-0.4369120285163125
aF-0.4266994536985461
aF-0.4156771901662893
aF-0.4048052637629942
aF-0.39323475595352186
aF-0.38180976809874684
aF-0.3702456238401942
aF-0.3585397652114006
aF-0.34703388301038807
aF-0.33484036598278827
aF-0.3226689748271157
aF-0.3103443593440806
aF-0.297863607819317
aF-0.28527050230664774
aF-0.27242167617960983
aF-0.2594542917912304
aF-0.24631835776997557
aF-0.23287806661392194
aF-0.21952752290766042
aF-0.2056109981802227
aF-0.19170333776296666
aF-0.17760799411842398
aF-0.16171147431967994
aF-0.155474004373719
aF-0.1447658918521033
aF-0.13589942829110147
aF-0.12615377049841836
aF-0.11554425967680967
aF-0.10384581544737786
aF-0.09046263661068835
aF-0.05680641341970946
aF-0.03702933865944763
aF-0.02133165949359203
aF0.002947103388209471
aF1.2794215733776173
aF1.3157759190880116
aF1.3699242632795006
aF1.402850336049597
aF1.4342557611350037
aF1.4642435045522804
aF1.532545302855853
aF1.559701651091409
aF1.6058677269045214
aF2.6679723716462274
aF2.858271193083305
aF2.9043442118561997
aF3.1054048488969457
aF-0.4972912285182819
aF-0.48768543863092845
aF-0.4791595539768313
aF-0.4692121483931263
aF-0.45873335571158363
aF-0.44813262459538505
aF-0.4374078141488966
aF-0.4272001228538488
aF-0.41648448287792106
aF-0.4053129337363104
aF-0.39426995838233175
aF-0.38280497064455754
aF-0.3709802084982744
aF-0.3594517686102404
aF-0.3475583143146807
aF-0.3353669705971788
aF-0.32319887339219044
aF-0.31087759332702847
aF-0.29847457083033185
aF-0.28576376668562986
aF-0.2729859704029141
aF-0.260001298182828
aF-0.2468333314817961
aF-0.23349983515261774
aF-0.2199903619139652
aF-0.20604803190459647
aF-0.19227111914855907
aF-0.17779515416780983
aF-0.16344458179328625
aF-0.15509055808412253
aF-0.14429876400300112
aF-0.13391199072714896
aF-0.12447593760737638
aF-0.11244714622127253
aF-0.11409363362087901
aF-0.08529084913193669
aF-0.07001049918235103
aF-0.054718711680313864
aF-0.038065502585522104
aF-0.02241334896207592
aF-0.009216387691721561
aF0.00812283823812493
aF0.025358893658857795
aF1.3668478441491716
aF1.3998466363457327
aF1.4511154820499752
aF1.4810606313508365
aF1.5296771940569092
aF1.5568968485077879
aF1.582940843219398
aF1.6278723229868262
aF2.664038887301786
aF2.711667846480576
aF2.851384677268487
aF3.0475423196166243
aF-1.5974201893456372
aF-1.524049785409476
aF-0.4986421284578806
aF-0.4890103157609551
aF-0.4796430772757476
aF-0.47009591088460745
aF-0.45922340541535434
aF-0.44898572905692835
aF-0.4382449582370747
aF-0.42737748023096406
aF-0.41668448161106963
aF-0.4055363999640941
aF-0.3942541685766512
aF-0.3825945704393742
aF-0.37127745291368686
aF-0.3593815961075236
aF-0.34756088395789236
aF-0.3357433870434213
aF-0.3236029574450955
aF-0.3114108273099763
aF-0.29893683113133507
aF-0.28625493923579354
aF-0.27350867022121145
aF-0.26054830457442557
aF-0.24735054610647142
aF-0.23399124693554668
aF-0.22054940072025223
aF-0.20673900079214297
aF-0.19268121939577537
aF-0.17856071472627658
aF-0.16402269561973123
aF-0.15493712453803218
aF-0.14382362728663967
aF-0.13308478651287653
aF-0.12357031456333373
aF-0.11204130878653246
aF-0.09898218991374069
aF-0.08396538724821265
aF-0.06932444961168302
aF-0.053478312091499725
aF-0.038128081177130235
aF-0.02555905565273703
aF-0.012504422445221097
aF0.005182432333868614
aF0.019708444452202434
aF0.04179340636836443
aF0.046393298458969
aF0.04939675751439976
aF1.4585072869543925
aF1.4872978362978206
aF1.534254254842017
aF1.6003193548460708
aF2.7077943140506604
aF2.8963535694091505
aF2.9914990619607735
aF-1.5993660106779846
aF-1.58334891592472
aF-0.49955951296857676
aF-0.48991644242665766
aF-0.48012660057466383
aF-0.470186610840997
aF-0.46009299227996037
aF-0.4502061377558992
aF-0.4394303984451221
aF-0.42885390186284117
aF-0.41749377446196767
aF-0.4066146312605742
aF-0.39529347648573665
aF-0.383834709347706
aF-0.3720141364462814
aF-0.3604941781444365
aF-0.3486071769232659
aF-0.3365720851092572
aF-0.32438611794339317
aF-0.3119440612929242
aF-0.2995500649826326
aF-0.2868940493568259
aF-0.27405216724201226
aF-0.261090639662756
aF-0.2479035032564594
aF-0.23454783709635907
aF-0.22101551283490334
aF-0.2073030020981031
aF-0.19325027209314682
aF-0.17913361574891973
aF-0.16482472633629122
aF-0.15406264641218864
aF-0.14334027395508625
aF-0.1325183739983716
aF-0.12205825119332742
aF-0.11005297927521851
aF-0.09676726784956921
aF-0.08261199801242769
aF-0.06821610005172213
aF-0.053123036002872326
aF-0.03867745243597154
aF-0.027631984661700443
aF-0.013052608719952064
aF0.0022932072432182427
aF0.004957075223176954
aF0.015296121484253689
aF0.027862843148307725
aF0.04426073056444624
aF0.05564494818858251
aF1.5039968976506706
aF1.5121006458144122
aF1.5577888791571703
aF2.7039207816207442
aF2.892358248185626
aF2.987503740737249
aF-1.6221196081831324
aF-1.5750607772287464
aF-0.5000357871873642
aF-0.49082599742532396
aF-0.48102442950218427
aF-0.4710722451006405
aF-0.4609659456522341
aF-0.4503369758453342
aF-0.4402764570468314
aF-0.42935655147148644
aF-0.4186153826010487
aF-0.40712331736508944
aF-0.3960726717949742
aF-0.38459538865220666
aF-0.3729774555904923
aF-0.3612162712502862
aF-0.3493091697236008
aF-0.3370997831475776
aF-0.3250462165732493
aF-0.3125807755446384
aF-0.3001658994276427
aF-0.2874868187857308
aF-0.2746688525585931
aF-0.2616353194229316
aF-0.2484564604064474
aF-0.23510442725717146
aF-0.22157578406111011
aF-0.20786700340406322
aF-0.19381932479051833
aF-0.17951774033943524
aF-0.16540152808863934
aF-0.1538992828591313
aF-0.1425853559609424
aF-0.13137696534789678
aF-0.12050130145999863
aF-0.10865161379341101
aF-0.09519130410437182
aF-0.08122978938715253
aF-0.0670887479327838
aF-0.05321775414206242
aF-0.03971006140971503
aF-0.028176646458778154
aF-0.015205945967442958
aF-0.0011116133381728344
aF0.0022017017818793394
aF0.011911628204568758
aF0.022586945789894564
aF0.03313223795871745
aF0.04541834462374461
aF0.06233111665779856
aF2.9386997895005096
aF2.9835084195137243
aF-1.6240956886155744
aF-1.597789864380457
aF-0.5009575107836965
aF-0.4917390002504929
aF-0.4815088744813883
aF-0.47156041220865696
aF-0.46145789252827407
aF-0.4511977090210674
aF-0.4407761418162369
aF-0.43018935309475415
aF-0.4191220404946395
aF-0.4079215500833112
aF-0.39658546342950585
aF-0.3853591625979551
aF-0.37349653129948096
aF-0.3617385471093597
aF-0.34965603953185115
aF-0.337937593163492
aF-0.32570908517320046
aF-0.3133256586918228
aF-0.3007047867390086
aF-0.2880291560014446
aF-0.27521585895019063
aF-0.2621823590929359
aF-0.24900941755643535
aF-0.23566101741798381
aF-0.2221360552873169
aF-0.20843100471002338
aF-0.19438837748788979
aF-0.180091935729977
aF-0.16685354635797567
aF-0.15518566459609795
aF-0.14181375877494112
aF-0.13020569061455994
aF-0.11827331109299016
aF-0.10553141372202599
aF-0.09284436613657715
aF-0.08060411022119679
aF-0.06805176539682642
aF-0.05376476053365997
aF-0.042165840910978
aF-0.029722308410134596
aF-0.016279916425129548
aF-0.010367618743644724
aF3.391404514085927e-05
aF0.008044110091916745
aF0.018046003229297558
aF0.03023315022395745
aF0.043037074262122055
aF0.0546074442132774
aF0.06547069022336355
aF3.084779763833183
aF-1.6260717690480164
aF-1.5893236129143649
aF-0.50188270204415
aF-0.4922206906702022
aF-0.48283039517150295
aF-0.4720485793166735
aF-0.461949839404314
aF-0.4516934946536514
aF-0.44092651118550585
aF-0.4306929988171443
aF-0.4193175873521049
aF-0.40872299106369997
aF-0.39709825506403745
aF-0.3856272177256993
aF-0.3742422795729765
aF-0.36266939774960777
aF-0.35054067628587177
aF-0.33846749172856666
aF-0.3263747412153329
aF-0.313755653918242
aF-0.3014054365519873
aF-0.2886256205473389
aF-0.2757628653417882
aF-0.2627329204700156
aF-0.24956237470642334
aF-0.2362176075787962
aF-0.22260670279383685
aF-0.2089950060159835
aF-0.19465017912832133
aF-0.18066613112051882
aF-0.16785432825671376
aF-0.15622016657637294
aF-0.14129740038534155
aF-0.12988739063630472
aF-0.1166035330578222
aF-0.10401870335342409
aF-0.09339137252817473
aF-0.08192601514411041
aF-0.06775908862016772
aF-0.05520737103560405
aF-0.044115287650112855
aF-0.030760793507338124
aF-0.01839437807145311
aF-0.012461917251978871
aF-0.0037041098378981507
aF0.005347097182935134
aF0.014735308203587982
aF0.022808857219554612
aF0.0323833513615599
aF0.041220196901617545
aF0.05109095824573423
aF0.06209133766802394
aF0.07564355440027842
aF2.975517777066675
aF-1.617517952236405
aF-0.503717720246734
aF-0.4935754280962433
aF-0.4837385714363216
aF-0.4729395013869346
aF-0.46282808708242357
aF-0.4521892802862355
aF-0.44177551135504795
aF-0.43119664453953443
aF-0.4201353562818214
aF-0.40923372168273686
aF-0.3978826746317186
aF-0.38639309054596205
aF-0.37476241763233414
aF-0.3631938290539004
aF-0.35124959892659285
aF-0.3389973902936414
aF-0.32690909635479404
aF-0.31450708503438474
aF-0.3020291728124377
aF-0.28916911756813973
aF-0.2763380179691959
aF-0.2632835307059663
aF-0.25008666779257394
aF-0.236716063060502
aF-0.2231682118857915
aF-0.20919908311718471
aF-0.1953744791246898
aF-0.1812403265110606
aF-0.16884618676596988
aF-0.15677920538265996
aF-0.1457916858940359
aF-0.1295648711376936
aF-0.1224166088271243
aF-0.10928477782497878
aF-0.09574117658231399
aF-0.08169343381535224
aF-0.06872273332401702
aF-0.0561957971955038
aF-0.04465532004246303
aF-0.03374565257349671
aF-0.025502184219779317
aF-0.01655831914886577
aF-0.006317018505429761
aF0.0011088994845471767
aF0.0088048065167734
aF0.01680272658447346
aF0.0251363065194648
aF0.0327236000147047
aF0.042383552114318435
aF0.05193569438515838
aF0.06441240733330744
aF2.9265223893438335
aF2.872917024684634
aF-1.6300239299129005
aF-0.5041984994278678
aF-0.49405895139515954
aF-0.4846502365896489
aF-0.47424067639318657
aF-0.4629337331563939
aF-0.45342701709965194
aF-0.44227519612445343
aF-0.4320347536253587
aF-0.42095639229713633
aF-0.41003941873890876
aF-0.3983965030244154
aF-0.38716208548684494
aF-0.3752825556916918
aF-0.3639259838285383
aF-0.35214641436971883
aF-0.3398466548997613
aF-0.32744345149425513
aF-0.31515463424222356
aF-0.30257151002815147
aF-0.28971261458894054
aF-0.27688620424392685
aF-0.2638352873688515
aF-0.25058555317137515
aF-0.23721671143177991
aF-0.22372972097774615
aF-0.20988610846611894
aF-0.1957934040827666
aF-0.1818145219016024
aF-0.1694127025075567
aF-0.15733824418894699
aF-0.14557835414712317
aF-0.13439706767384996
aF-0.12175671671423449
aF-0.10884137433466903
aF-0.0955681809450773
aF-0.08184930966088841
aF-0.06885075177331709
aF-0.05585219388574575
aF-0.04519535243481321
aF-0.0347625774834929
aF-0.028455330959673814
aF-0.018075846848376598
aF-0.009904254878313756
aF-0.0025024148397650436
aF0.004642521258295895
aF0.012589358945074236
aF0.019795857401514683
aF0.027864500974034645
aF0.03630473183918742
aF0.04571574288611446
aF0.055603312497701674
aF0.06842571150539462
aF0.08266232303404392
aF2.8723816420680026
aF3.019128385917714
aF-1.6214396205396764
aF-0.5042234375120118
aF-0.49498333782909676
aF-0.4851384036976655
aF-0.474731672850467
aF-0.464203606806359
aF-0.45392474466442373
aF-0.4434835667551006
aF-0.4328761977343405
aF-0.4217807150158396
aF-0.4105511777906112
aF-0.3991851418436656
aF-0.3881893803486215
aF-0.376033496166471
aF-0.3644514995409173
aF-0.3524902676709487
aF-0.34037877242105147
aF-0.3282510979083195
aF-0.31569352155358943
aF-0.30311384724386525
aF-0.29043041971755323
aF-0.2774957990388166
aF-0.26438704403173674
aF-0.2511421433321875
aF-0.23777575023806696
aF-0.22420493948624942
aF-0.21045262420770572
aF-0.19621421774641856
aF-0.1823887172921442
aF-0.16935121424322006
aF-0.1574317009639166
aF-0.1466365015081341
aF-0.13438937278774843
aF-0.12169485888351336
aF-0.10905464020880232
aF-0.0950323917029674
aF-0.08239514123746308
aF-0.06771668803782746
aF-0.057282791237105446
aF-0.04573538482716338
aF-0.036725843840533484
aF-0.030405170587633062
aF-0.020072778066508423
aF-0.012912357248370254
aF-0.005529825552502199
aF0.00261446549830191
aF0.009511025211292545
aF0.01669634729047642
aF0.02367134570995505
aF0.03150809853756553
aF0.03971888438036192
aF0.04833757343320544
aF0.05911419776692789
aF0.07228067456421688
aF2.8199168025129557
aF3.015069252532155
aF-1.6339760907777845
aF-0.5051600577901353
aF-0.49546778280830084
aF-0.48562657080568195
aF-0.475632962224807
aF-0.46469746560113534
aF-0.4544224722291955
aF-0.4439852241824638
aF-0.43372099681236687
aF-0.4226083442131005
aF-0.4113611587602648
aF-0.4002550806716393
aF-0.3887095184079791
aF-0.37702130405677825
aF-0.36518777736017416
aF-0.3530190636833433
aF-0.34107381100232037
aF-0.32878770956432857
aF-0.3162324088649553
aF-0.30365618445957904
aF-0.2909178990151792
aF-0.2780463604158963
aF-0.26494245122741095
aF-0.25167335602799557
aF-0.23827983842173403
aF-0.22476769192595616
aF-0.21090242727396197
aF-0.19663693291722795
aF-0.1827810826850441
aF-0.16928889244814407
aF-0.15799321005587125
aF-0.14617346624697525
aF-0.13438161151071285
aF-0.12193664647675179
aF-0.10827234509568087
aF-0.09485446200741807
aF-0.08216307868064884
aF-0.0674187324118759
aF-0.057826288257906255
aF-0.04534933686826914
aF-0.039130029324931564
aF-0.03186351959981862
aF-0.022528485890621786
aF-0.014888703689236504
aF-0.006023684347278513
aF0.0006096047200681021
aF0.007501205888634843
aF0.014164192266782893
aF0.02112531018208441
aF0.02788704434813616
aF0.03498420714749356
aF0.042977470309896126
aF0.05192701067003852
aF0.06247818679945538
aF0.07598648602582919
aF2.159652041066859
aF-0.5065613647198676
aF-0.49595222778750486
aF-0.486543623963468
aF-0.4761249091008469
aF-0.4655844828043988
aF-0.4549201997939673
aF-0.44484531136818484
aF-0.4345691709646974
aF-0.4227980872248701
aF-0.4121744149564524
aF-0.40105233017650566
aF-0.38922965646733676
aF-0.3775446554191471
aF-0.3659271127439285
aF-0.3539251470876312
aF-0.3416070449852682
aF-0.3293243212203376
aF-0.3168850001877914
aF-0.3042860678942672
aF-0.2915853962756358
aF-0.278596921792976
aF-0.2655002805525771
aF-0.2522311678243325
aF-0.2388401096479408
aF-0.22533044436566288
aF-0.2113542446363924
aF-0.1972111283077697
aF-0.18317522908523
aF-0.16965159409830238
aF-0.15832286842250978
aF-0.1459603071964723
aF-0.134373782979796
aF-0.121569538646038
aF-0.10747643332497092
aF-0.09504019966711055
aF-0.08034397245150351
aF-0.06754586149726102
aF-0.05793068002099272
aF-0.04354736533283188
aF-0.03872613295710331
aF-0.033310098493672446
aF-0.024471028218636726
aF-0.015388388458642016
aF-0.006517543142054827
aF-0.000375945277588996
aF0.006519356432285739
aF0.013186341368430055
aF0.019125161069886487
aF0.02536534115680178
aF0.031409018185734994
aF0.038826206634296034
aF0.04715466188761058
aF0.0553693424998285
aF0.06796675327038582
aF0.08253463691751112
aF2.1855909364868467
aF-0.5056630516631788
aF-0.4973290223346852
aF-0.48703273055781704
aF-0.47703064858808736
aF-0.46568518319068797
aF-0.45617354247913183
aF-0.44570880746799924
aF-0.43507684093801363
aF-0.4239500304420864
aF-0.41299096628490245
aF-0.4012890086196462
aF-0.3900091998872113
aF-0.37830491248882747
aF-0.366669524777678
aF-0.3546470932262733
aF-0.3423061274438719
aF-0.3300018521622873
aF-0.3175403707973269
aF-0.30491865115343963
aF-0.29207143889234594
aF-0.2791819732672512
aF-0.2660605478862109
aF-0.25278897962066954
aF-0.23934766316672162
aF-0.2257269739645198
aF-0.21192329733376386
aF-0.1976370581332031
aF-0.1835711686466883
aF-0.16980383388418124
aF-0.1586539899519183
aF-0.14574432241862376
aF-0.13408483072144523
aF-0.12088786945109081
aF-0.10769090818073643
aF-0.09486114255392322
aF-0.07969593217126222
aF-0.06852464671185188
aF-0.0571501848150788
aF-0.04362179376554329
aF-0.045154474689481194
aF-0.034745049188804444
aF-0.02544982988211833
aF-0.01491149327831745
aF-0.007011401936831196
aF0.0006468239539607623
aF0.0070552369423891315
aF0.012718828460976994
aF0.01714657262056546
aF0.022879242000397038
aF0.027908104632877573
aF0.03426542474616068
aF0.041994095067107384
aF0.05064707625977172
aF0.06084276092180213
aF0.0733063789735744
aF2.24248986547479
aF-0.4973673656189318
aF-0.48838836050641266
aF-0.47793990817146065
aF-0.46657412348020577
aF-0.45629369780061746
aF-0.44585061058547537
aF-0.4355845109113298
aF-0.42511127082196043
aF-0.4135058356364767
aF-0.4020883655551987
aF-0.3905304046543093
aF-0.3790683136458548
aF-0.36719832079007264
aF-0.35479590719509235
aF-0.342840482583333
aF-0.33068225636817034
aF-0.31819853848628593
aF-0.3054633129505174
aF-0.292745366132282
aF-0.2797695705984105
aF-0.2666232692463912
aF-0.2533249833370206
aF-0.23985746443370695
aF-0.22612704708581038
aF-0.21226397661544133
aF-0.19791661723564036
aF-0.18396891363424595
aF-0.170170190362079
aF-0.15875414589596992
aF-0.1457867352829219
aF-0.13379207321066375
aF-0.12019420459896571
aF-0.10756608599494105
aF-0.09394050047521615
aF-0.0790392821701395
aF-0.0694991819803972
aF-0.05680773910858447
aF-0.04971060607677105
aF-0.04566934404105544
aF-0.03571306084488188
aF-0.025482327900950258
aF-0.014922955682951433
aF-0.007007304324339103
aF0.003219945116734735
aF0.010171742450492904
aF0.014293619872301988
aF0.019931700558944332
aF0.024973056342105504
aF0.030818388435270516
aF0.03749002292316689
aF0.04553711437343949
aF0.053478080533733485
aF0.06078431649416072
aF0.07566735020693827
aF-0.5084748255145715
aF-0.49875222570345223
aF-0.48844431310541603
aF-0.47843376696623696
aF-0.4678656745551858
aF-0.4575549212082684
aF-0.44708037858077293
aF-0.43678543203132514
aF-0.4256240624564921
aF-0.41463403477132
aF-0.40260638324454523
aF-0.39157791843597844
aF-0.3795938293582338
aF-0.3677271168024672
aF-0.35590530284849237
aF-0.34354363684276695
aF-0.33107734631458796
aF-0.3187408757019997
aF-0.3060079747475951
aF-0.29329473739112333
aF-0.2803225277483985
aF-0.26718846079182607
aF-0.25384258717178776
aF-0.24036952841357762
aF-0.2266948284714028
aF-0.2127219187212742
aF-0.1983470687898194
aF-0.18400626076408982
aF-0.17032585175911216
aF-0.15862090066281054
aF-0.1460907110774801
aF-0.1332080953643687
aF-0.11980658017573806
aF-0.10744016553144728
aF-0.09262571268905606
aF-0.07960203460984622
aF-0.06963056101182782
aF-0.05601138884414317
aF-0.05024608709727699
aF-0.04618421339262971
aF-0.03576651042687823
aF-0.024563230308682904
aF-0.014441371262890412
aF-0.004987835489802139
aF0.007444015833703632
aF0.014443333557027982
aF0.012290694240158107
aF0.014239171235063353
aF0.016550009020494638
aF0.020638530297448443
aF0.025507746697361555
aF0.029247144347982812
aF0.037139401819528184
aF0.04296289682181165
aF0.0521183232478068
aF-1.068114637592047
aF-1.0371724397832653
aF-1.0235856914642059
aF-0.99915502647946
aF-0.974497743148298
aF-0.4992394569273876
aF-0.4893703534209737
aF-0.47934752874975295
aF-0.46836242925600235
aF-0.458055590363571
aF-0.44721974463516967
aF-0.436946798771105
aF-0.42613685409102375
aF-0.41484266188647045
aF-0.40369689530233943
aF-0.3923671333151693
aF-0.3803614830488671
aF-0.36847482983624447
aF-0.3564385368314402
aF-0.3440791178632729
aF-0.33176003099090207
aF-0.3194030182203947
aF-0.30664561478562397
aF-0.2939103617388567
aF-0.2809138933125802
aF-0.2677462725881631
aF-0.254384484501751
aF-0.24083398929626804
aF-0.227101041156973
aF-0.21306852920183456
aF-0.19892650067322598
aF-0.1845896831276021
aF-0.170695929650369
aF-0.15824859237297806
aF-0.14587270060450952
aF-0.13261368027149684
aF-0.1197337086909791
aF-0.1066209699699727
aF-0.0916664967474145
aF-0.08016478704955296
aF-0.06933966779726253
aF-0.05611386768510343
aF-0.04713692590884383
aF-0.03536126503179901
aF-0.023149527873698256
aF-0.011445881277046766
aF0.0039699225796041016
aF0.011269984971323033
aF0.014188654511290866
aF0.015488538289832654
aF0.019446297707786442
aF0.024157211622758912
aF0.02870506957664537
aF0.03447958348006053
aF0.041046322576657135
aF-1.06562960967407
aF-1.041832488787772
aF-1.0212702520892754
aF-0.996941214599153
aF-0.9756764650359959
aF-0.5118062195676658
aF-0.49972668815132293
aF-0.49029997879737997
aF-0.480264855663161
aF-0.46966606742855066
aF-0.4589417533510556
aF-0.448457407481203
aF-0.43745548487562025
aF-0.426979983673883
aF-0.41566796271932693
aF-0.404217033361697
aF-0.39289156461946195
aF-0.38113232459958457
aF-0.3690047284013192
aF-0.3571688033934886
aF-0.3449588722140394
aF-0.3325929403425477
aF-0.3199465152411955
aF-0.30728599965970854
aF-0.29452865916565085
aF-0.2815078434562882
aF-0.2683040843845001
aF-0.25494723694145777
aF-0.2413516668976588
aF-0.22759132419367076
aF-0.2134182934774824
aF-0.19921388725846267
aF-0.184812930432465
aF-0.17064149237740545
aF-0.15834895442745417
aF-0.14538602432231099
aF-0.13200854559672182
aF-0.11998028716216808
aF-0.10578710040905975
aF-0.09185174931389209
aF-0.08072753948925968
aF-0.0690462207072621
aF-0.05576236312877958
aF-0.05738980862967902
aF-0.04633501660932424
aF-0.034023918405657466
aF-0.02072612534738061
aF-0.00731924695277375
aF0.008436046986088241
aF0.013751686935751628
aF0.01460275857684934
aF0.015848074080456742
aF0.01789856236521309
aF0.02246141080432601
aF0.0273125973825889
aF0.0306996945992552
aF0.03702855467140975
aF-1.0667764182435866
aF-1.0429844956944796
aF-0.5510216642752621
aF-0.5006690636187399
aF-0.4907919256734199
aF-0.48033716942555993
aF-0.4701647716753452
aF-0.46022097039646404
aF-0.44933326891727593
aF-0.4390195441935506
aF-0.4278265294292878
aF-0.41649662793420594
aF-0.4053186473637274
aF-0.3936851277507923
aF-0.3819063739091965
aF-0.3697566731098701
aF-0.3577031585329497
aF-0.34532298374885245
aF-0.3331341226926071
aF-0.3204900122619963
aF-0.30792914713153763
aF-0.2951496471193981
aF-0.2821043951605949
aF-0.2688742164359742
aF-0.25549278830641453
aF-0.24191944828325124
aF-0.22808381765084348
aF-0.21399640730392738
aF-0.1997959733688221
aF-0.18503824670668798
aF-0.1708015117075127
aF-0.1574833688297494
aF-0.14489047135137137
aF-0.13139239872888506
aF-0.11893825075772521
aF-0.10493815900922696
aF-0.09203783520527833
aF-0.08129029192896639
aF-0.06875018596119886
aF-0.056320174925116595
aF-0.05706594120586275
aF-0.04507671997821014
aF-0.02930603996192574
aF-0.016713170892380308
aF0.005382049848846271
aF0.016027006054033288
aF0.013211146078963731
aF0.014020960137196226
aF0.01731126466888705
aF0.02046480098545861
aF0.025167783954523626
aF0.028892744027033068
aF-1.0643085649180688
aF-0.5711103170016477
aF-0.553797274134986
aF-0.5413752784581722
aF-0.5295222804994861
aF-0.5206942877014245
aF-0.5011572307267564
aF-0.4912838725494599
aF-0.4812564269283292
aF-0.4710712583726212
aF-0.4607246161188542
aF-0.4498399268108668
aF-0.439531303245253
aF-0.4286765121617366
aF-0.41732867814574476
aF-0.4055485179092458
aF-0.39421064346317125
aF-0.38243516992159116
aF-0.3705117665953657
aF-0.35823751367241086
aF-0.3462098784941171
aF-0.33367530504266646
aF-0.32128166740291936
aF-0.30867324030765764
aF-0.2957026042693861
aF-0.2826609853214072
aF-0.26946052936076326
aF-0.2560407664437781
aF-0.24239399245803323
aF-0.2285785365106462
aF-0.21446351959561258
aF-0.20023370369537213
aF-0.18526566084577453
aF-0.17074717864104202
aF-0.15733662878489252
aF-0.1441116447083674
aF-0.1307649363092065
aF-0.11787245669044408
aF-0.10479630897074385
aF-0.09260944768250098
aF-0.08063991268677942
aF-0.06801920596298358
aF-0.06801967907487635
aF-0.05631235956679134
aF-0.041967262245396764
aF-0.02436714156306738
aF-0.013077540940422072
aF0.008943850639584694
aF0.011922360404262478
aF0.014400285954298375
aF0.017173307635339363
aF0.019420356946643014
aF0.024392128585158768
aF-0.5661722352693301
aF-0.5465144521922536
aF-0.5288685956922121
aF-0.5175688446611848
aF-0.5076378690087162
aF-0.4971527548972795
aF-0.4861666177831949
aF-0.47634823903140966
aF-0.4667694286639458
aF-0.4577592809138866
aF-0.44850014102873187
aF-0.44039975778725104
aF-0.4291924266984829
aF-0.41784775385473344
aF-0.40606972267634384
aF-0.39500858412316947
aF-0.38321354960754606
aF-0.3712700286776123
aF-0.3591751996533311
aF-0.3469261689052526
aF-0.3345199685465221
aF-0.3220801528885156
aF-0.3093235884011653
aF-0.2964723407531738
aF-0.28326137735199364
aF-0.27003700944920855
aF-0.2565762867095072
aF-0.24291867177190019
aF-0.22915273190118796
aF-0.21504295147901914
aF-0.2006734483780918
aF-0.18382326210835942
aF-0.1704735542777394
aF-0.15693918818355157
aF-0.14359384486087487
aF-0.13012584373326028
aF-0.11745460519548565
aF-0.10501395685676093
aF-0.09241252955576859
aF-0.0799807763033199
aF-0.06727842753851054
aF-0.06691664632422259
aF-0.05336573940933745
aF-0.03388871849593911
aF-0.020777524058377295
aF0.003909235631701702
aF0.01509295878739364
aF0.011108773458957166
aF0.011541319137297057
aF0.013948830272548007
aF0.016246848528681246
aF0.019227792965231083
aF-0.5829382762922475
aF-0.5625597781995391
aF-0.5416824839138781
aF-0.5268821511271438
aF-0.5175685411447171
aF-0.5067435894144986
aF-0.4967516390791695
aF-0.4866464891669172
aF-0.47723886573855656
aF-0.4684399320537287
aF-0.45901637280592916
aF-0.44827141335731957
aF-0.43913820072454335
aF-0.4297083412352292
aF-0.4186842721966997
aF-0.4074782167500963
aF-0.3958098384169202
aF-0.38374344817262074
aF-0.3720314793431053
aF-0.3601208386859662
aF-0.3478255837554135
aF-0.33521734651273194
aF-0.32262833916324657
aF-0.30997676649039774
aF-0.2971030467268132
aF-0.29176443656105416
aF-0.27290640973394836
aF-0.2554294262261036
aF-0.2393491003137314
aF-0.22456933089546738
aF-0.210577584621711
aF-0.19666099630505207
aF-0.1830897558131041
aF-0.16974900490341188
aF-0.15602673926931532
aF-0.1427832418785357
aF-0.12978693381457046
aF-0.11703095839950017
aF-0.10523259718509029
aF-0.09260114943926961
aF-0.08014016249038478
aF-0.07739665072167512
aF-0.06537716208132555
aF-0.04801676383627376
aF-0.028332083929530877
aF-0.017061291626286085
aF0.009510480882313987
aF0.01960081632778088
aF0.14170248799228957
aF0.13935371218634363
aF0.010348123061124759
aF0.011184449667059615
aF0.013915971742388955
aF0.01730972250894397
aF-0.5601780227689156
aF-0.5405995394761813
aF-0.5283328973007896
aF-0.5180421526831336
aF-0.5076744118849263
aF-0.4972288075238138
aF-0.4862841449864185
aF-0.4761004729485807
aF-0.46735373717225004
aF-0.4579906442228801
aF-0.4487710981267251
aF-0.44035337621227777
aF-0.4309048903132132
aF-0.41952422162998604
aF-0.40830194185572977
aF-0.39661442702832045
aF-0.3850350525578885
aF-0.4249053569231102
aF-0.4065322224577935
aF-0.36903538549669085
aF-0.3438409512508072
aF-0.32096472422403527
aF-0.29142369783953886
aF-0.2734970911458485
aF-0.25629582168759907
aF-0.23905264542676535
aF-0.2100099904889822
aF-0.1961276734061992
aF-0.18213035405509836
aF-0.1685431017528147
aF-0.154299468282051
aF-0.14195332091716423
aF-0.12881145028097823
aF-0.11728098693315528
aF-0.10509079633504906
aF-0.09240284974714388
aF-0.07988690010231028
aF-0.07674771772963945
aF-0.058999746197623354
aF-0.03578113813846992
aF-0.023019689435495233
aF0.005484300557955013
aF0.014061892998425918
aF0.132273950762044
aF0.1408791234074221
aF0.13556235152699675
aF0.1491187910307249
aF0.012008635159431569
aF0.012390311837118084
aF0.015029273571500523
aF-1.0688751926609694
aF-0.539017607552228
aF-0.5278223656622903
aF-0.519950826200843
aF-0.5081497952231919
aF-0.4968289077802017
aF-0.486342577594267
aF-0.47617846515134177
aF-0.47265829290931816
aF-0.4619516979152344
aF-0.4514913065281436
aF-0.9097746668497748
aF-0.8623470670713729
aF-0.4246916934930439
aF-0.40598938266981455
aF-0.3687975252034691
aF-0.3457009103797469
aF-0.3219004202044568
aF-0.27401027092771474
aF-0.25712885856536155
aF-0.2404211333809371
aF-0.22362100093482828
aF-0.20825310151609472
aF-0.19469759195372266
aF-0.18092402421323195
aF-0.16704959210081044
aF-0.1535846258583754
aF-0.14110338308086276
aF-0.1281354590827927
aF-0.11719296541402516
aF-0.10494769040103338
aF-0.09259273767973647
aF-0.08760465119322308
aF-0.07322728484861929
aF-0.041064746953320214
aF-0.028846687444837454
aF-0.01685774663055542
aF0.009476031213918712
aF0.020152364012510193
aF0.18240169909716553
aF0.13654799773395526
aF0.1471495654732296
aF0.12220688952479603
aF0.1338733956780332
aF0.14634960461012042
aF0.16629383924862862
aF0.011261618522169337
aF0.013916572990373521
aF-1.0736572696606856
aF-1.0498965371347253
aF-0.5332873122494728
aF-0.5223694036671447
aF-0.5114101871448743
aF-0.49996080186686565
aF-0.4893668889868303
aF-0.4795166432011439
aF-0.4703129362969932
aF-0.4612807402685633
aF-0.9220918734180277
aF-0.8643386327345879
aF-0.42349643972631706
aF-0.40589321931184325
aF-0.36817439999387336
aF-0.34760320374134146
aF-0.2922331360654302
aF-0.27462903981493914
aF-0.25788692547035164
aF-0.24171616729196663
aF-0.2253716094004846
aF-0.20923042394123362
aF-0.19391805335006834
aF-0.17966138384958436
aF-0.16598423807250254
aF-0.15312621671119478
aF-0.14023269534884514
aF-0.12777245454993563
aF-0.11710412051485783
aF-0.10480326128246314
aF-0.09843329914549762
aF-0.08623476086010365
aF-0.032292093953536216
aF-0.02084378244339541
aF0.005890025853300507
aF0.015696249551948316
aF0.025828376361572813
aF0.1735864844065062
aF0.13113841437037654
aF0.1440482006746383
aF0.16150948458921455
aF0.0147122995259511
aF-1.0675455412567922
aF-1.051048544041433
aF-1.0340966886594747
aF-0.9635315835230343
aF-0.9068652429670103
aF-0.8902732906633277
aF-0.8760159418259414
aF-0.48942003250330457
aF-0.8223217064904571
aF-0.7950750992558384
aF-0.7675568553295766
aF-1.0719875299652253
aF-1.001691528789699
aF-0.9188955713307343
aF-0.87109337748674
aF-0.4232952146532009
aF-0.4057982300714616
aF-0.35945442466635447
aF-0.34175131075221254
aF-0.32460031426507985
aF-0.3078483684239742
aF-0.29120183489343743
aF-0.27479114365255236
aF-0.2585397392055187
aF-0.24261981734047203
aF-0.22712516234700772
aF-0.21144225270749628
aF-0.19618967028507386
aF-0.18138213302884187
aF-0.167118430163357
aF-0.1537574593143991
aF-0.1411512620618658
aF-0.12902689477214221
aF-0.11769845789851777
aF-0.10965163269239833
aF-0.07165267454547011
aF-0.0318619223841827
aF-0.02021623246136975
aF0.013112387323082064
aF0.022862942245641504
aF0.025214379800237052
aF0.15119240256574618
aF0.17114145111372986
aF0.1269795634982439
aF0.13982615391546305
aF0.15834352879677205
aF0.8820675178082604
aF-1.0723001634681448
aF-1.0486405254784303
aF-1.0317331683837108
aF-1.0074522117944218
aF-0.9829470653410028
aF-0.9647213415820413
aF-0.9395541800643994
aF-0.9141491556509678
aF-0.8885028801528172
aF-0.8654849607101569
aF-0.8448362491667247
aF-0.8100816860656739
aF-0.780929680058057
aF-0.7688237122585986
aF-1.034788355322666
aF-0.9687050606805279
aF-0.9157493638394194
aF-0.89299583460159
aF-0.4226158686592602
aF-0.40570439357586063
aF-0.3601611473244621
aF-0.34223307029933403
aF-0.32495696788136186
aF-0.308172317217302
aF-0.2915809017916779
aF-0.27537103884262104
aF-0.25941604083659797
aF-0.2436589780366635
aF-0.22806536572877537
aF-0.21276295406466897
aF-0.19835793028473026
aF-0.18425758533029885
aF-0.17034439829235404
aF-0.15702732197872932
aF-0.14437599531683715
aF-0.13305547247053937
aF-0.12062770645213874
aF-0.10225650305438927
aF-0.0701107808643257
aF-0.052686892289927845
aF-0.03558907653026594
aF-0.018309664041356227
aF0.0070928757360047
aF0.02295064928664592
aF0.1274110435945815
aF0.15324798146587448
aF0.16419211172535952
aF0.12400317003812822
aF0.1356759492298017
aF0.15402352740960917
aF0.8801653865844852
aF0.9344271911161504
aF-1.0662277294637652
aF-1.0462541412668425
aF-1.0259184021438656
aF-1.001832095249765
aF-0.9841203455670662
aF-0.9626370304915917
aF-0.940749534070902
aF-0.915350158494056
aF-0.8926982150860834
aF-0.8667032350034483
aF-0.8432514796124673
aF-0.816636727776785
aF-0.7772028064841126
aF-1.0495666637137762
aF-0.9651685292810364
aF-0.9229101623423333
aF-0.9055454283373341
aF-0.4219486679172959
aF-0.4056116889678436
aF-0.3442630645252276
aF-0.3083706599308034
aF-0.2921039409208379
aF-0.2760086261517333
aF-0.2600820206635001
aF-0.24441971685962413
aF-0.22890263946282066
aF-0.2131590863235347
aF-0.1975044038273024
aF-0.18205975491677193
aF-0.17164537698456514
aF-0.15840564555237552
aF-0.14469911183220835
aF-0.10274593836352425
aF-0.086088542527481
aF-0.06874502418521863
aF-0.0511251963205403
aF-0.03685831619037022
aF-0.016362161345363002
aF-0.0015241706266430066
aF0.016875402642451187
aF0.033961806793782856
aF0.15888669826700502
aF0.1177910329257627
aF0.13270926214120926
aF0.1486151320448113
aF0.8697830630802919
aF0.9325107161638686
aF0.9971594270163542
aF-1.0637951238032024
aF-1.0473957982025675
aF-1.0270704090505733
aF-1.009787988948926
aF-0.9852936257931293
aF-0.9671008577000553
aF-0.9387676874220432
aF-0.9196530470716175
aF-0.8939106772974612
aF-0.8679215092967396
aF-0.8416819768041173
aF-0.8178727775248094
aF-0.7784152686954904
aF-0.7190959703165193
aF-1.0087458247678929
aF-0.9616869938135069
aF-0.9197324951658492
aF-0.44021227386829725
aF-0.42176138003526564
aF-0.3384703078529076
aF-0.3215887946562163
aF-0.30587090895681246
aF-0.2910823925178633
aF-0.27597478871896713
aF-0.2607676019477055
aF-0.2449839933596024
aF-0.22893846776959095
aF-0.21368822913799226
aF-0.19866303414650444
aF-0.18292269116357454
aF-0.16710113089312012
aF-0.15090711066801812
aF-0.13454423152266018
aF-0.11838947023041596
aF-0.10215004274184822
aF-0.08629024696699278
aF-0.07341536180102262
aF-0.05885576044010127
aF-0.04500221027822296
aF-0.030180435988266363
aF-0.013535260345213657
aF0.008157283754443523
aF0.03168438784456068
aF0.15226999117805
aF0.16702128824000284
aF0.11492521655880378
aF0.12867678800477284
aF0.1433270533680458
aF0.8678950624707111
aF0.9305942412115868
aF0.9856515030687818
aF-1.0544016095389237
aF-1.0450256525351458
aF-1.028222415957281
aF-1.0075356649905485
aF-0.9864669060191924
aF-0.8944224097682185
aF-0.8820237463273812
aF-0.9146738086335569
aF-0.895123139508839
aF-0.8720581251771473
aF-0.8457116140939174
aF-0.8164185117517841
aF-0.7207043388355893
aF-0.702551715484917
aF-0.8890732911772636
aF-0.8613539368048693
aF-0.821169083558978
aF-0.780984230313087
aF-0.43939749114676274
aF-0.42111149956648014
aF-0.35040693922020516
aF-0.33489388635743156
aF-0.31995087223708546
aF-0.30535340113965453
aF-0.2906897744881716
aF-0.2762209754206845
aF-0.2615146563649993
aF-0.24630934617016004
aF-0.23038362224278855
aF-0.2143473006513475
aF-0.19915078982852397
aF-0.18418710991546472
aF-0.16849030072134302
aF-0.15214250686946829
aF-0.13652821202078538
aF-0.12164463158225272
aF-0.10611049005931902
aF-0.09101843742067389
aF-0.07742707381594696
aF-0.06460685125104315
aF-0.04999512574070092
aF-0.03658500033465731
aF-0.02158968993263452
aF-0.006594379530611649
aF0.011808540587864957
aF0.04394729260752889
aF0.1444611611722983
aF0.1576809092134404
aF0.11104193299063203
aF0.12471140796143526
aF0.14149479184221503
aF0.8660070618611304
aF0.9197567805148927
aF0.97431713868925
aa(lp4
F28.66734918026184
aF30.085320818302918
aF30.10330759660239
aF30.106440363444406
aF30.124751377804415
aF30.127910118859553
aF30.178313408587638
aF30.197868881297804
aF30.201135974066478
aF30.27279760064196
aF30.276180742563753
aF30.315738503121445
aF30.33779659206915
aF30.360260867483
aF30.422991433564246
aF30.42659881416335
aF30.450770939745777
aF30.49681577011828
aF30.50052861873004
aF30.526141992596727
aF30.552264524743315
aF30.57891154962222
aF30.60609902370596
aF30.658219013736677
aF30.68708903970104
aF28.67311926235168
aF28.67375676408116
aF28.68044124352845
aF30.73745649368754
aF30.217510447398595
aF30.237574112989655
aF30.275407681904774
aF30.314597163268182
aF30.33644551266659
aF30.358692515818475
aF30.40088660295339
aF30.404426938507196
aF30.448286170325183
aF30.47266561089179
aF30.49751564863218
aF30.501192662622174
aF30.504869676612167
aF30.575029667164046
aF30.578816322046805
aF30.6293258838297
aF30.66121140688005
aF28.71158542155951
aF28.69651795005666
aF28.680953100904627
aF28.687106400523348
aF30.93368145022451
aF30.82660040385473
aF30.85755530511497
aF30.812060059719027
aF30.764546808810742
aF30.159572960922908
aF30.230617827962035
aF30.254090220961046
aF30.274648111451626
aF30.29556790269173
aF30.372636965227528
aF30.376112702397663
aF30.39892976189647
aF30.42217088831739
aF30.425711223871197
aF30.449421558446577
aF30.494560282037806
aF30.519621636570594
aF30.52329865056059
aF30.571224191702385
aF30.597794809584773
aF30.62489891694262
aF30.676870150634734
aF30.68077318589337
aF28.722324157029952
aF28.714097962652495
aF28.707734386055353
aF28.703076174369315
aF28.70075417812119
aF28.699940438529982
aF28.701353385051565
aF28.705027432537538
aF28.706461977879762
aF28.696741930012898
aF28.705541404717714
aF31.133143568969366
aF30.98405306233452
aF30.92974722892299
aF30.877737366668487
aF30.831824319288295
aF30.835767754182797
aF30.217018794564556
aF30.305668032871356
aF30.273901681144718
aF30.294632430435275
aF30.33381534062381
aF30.35564012442217
aF30.397008626146985
aF30.42001807859163
aF30.44345517368139
aF30.488053502049745
aF30.512813088710967
aF30.51645495318382
aF30.54172762450901
aF30.567492889346507
aF30.571205737958273
aF30.620559952005504
aF30.647892600602823
aF30.651717270042415
aF30.704238000165322
aF28.732666467491793
aF28.72493496297273
aF28.715096278031073
aF28.70953162533805
aF28.705630311535323
aF28.70329851498514
aF28.703222312188732
aF28.703146376484415
aF28.70530856081943
aF28.709004121635857
aF28.714305692497618
aF28.71655458887033
aF31.42741217853891
aF31.432321012624747
aF31.397053167017997
aF31.36267132959377
aF30.87849639400144
aF30.803273619059308
aF30.807137074058765
aF30.259450966917175
aF30.332534980729868
aF30.354154587284427
aF30.37616160499916
aF30.41790454989631
aF30.421380287066444
aF30.46473945904539
aF30.48881587556065
aF30.49238941919834
aF30.538349624329836
aF30.563833612447425
aF30.58981431288533
aF30.61630639080804
aF30.66706161482343
aF30.670886284263023
aF30.72379977917864
aF30.72770281443728
aF28.739627193422006
aF28.730034444416948
aF28.71845776923529
aF28.712080956399767
aF28.708166417715535
aF28.707326606718397
aF28.70649268282477
aF28.706411158640062
aF28.70858101028246
aF28.711528319073885
aF28.7176205417305
aF28.725483320603452
aF28.73784412178496
aF31.54602494021319
aF31.348103546672892
aF31.28302208772566
aF31.221017378835967
aF31.06110854498086
aF31.06536002409674
aF30.979210563164628
aF30.954434345245698
aF30.958504157898794
aF30.29607671180175
aF30.352695201516823
aF30.374493833945042
aF30.415829236844985
aF30.4586869730051
aF30.462194711981958
aF30.48602374440939
aF30.4895640799632
aF30.556602431002997
aF30.56024429547585
aF30.585939600385842
aF30.589616614375835
aF30.63884749036087
aF30.666090236846962
aF30.66987689172972
aF30.72223332432467
aF30.751167628709233
aF28.742226819933897
aF28.730933311564463
aF28.721007087706276
aF28.716166529619706
aF28.71220872764854
aF28.709838989165124
aF28.709751610809725
aF28.710418109628115
aF28.71184198975475
aF28.71557062900689
aF28.720923565111672
aF28.728825981419803
aF28.74211242294083
aF31.533276135142412
aF31.45532557026793
aF31.3812430084735
aF31.310747517249272
aF31.279042766867075
aF31.213405163481784
aF31.118354591647844
aF31.090919661974617
aF30.33333606169574
aF30.354585387386223
aF30.394833080605657
aF30.43653624639013
aF30.459696397394957
aF30.48328302867712
aF30.50730802977339
aF30.553115570535244
aF30.556722951134347
aF30.582138966621866
aF30.60804558832426
aF30.634457159962974
aF30.63817000857474
aF30.688855379267693
aF30.716873651583423
aF30.770729407722552
aF30.774632442981186
aF28.745689797426444
aF28.733488327340687
aF28.725951813577662
aF28.719466260664355
aF28.71548055121088
aF28.713852962368687
aF28.71375856179778
aF28.714425060616165
aF28.71585596295831
aF28.718836529668852
aF28.724214825812222
aF28.733802868574877
aF28.746380724096706
aF31.479615382702388
aF31.44419647032496
aF31.371294400984493
aF31.37596263736299
aF31.235708906679463
aF31.17690746673792
aF31.11647929985249
aF32.11914015371695
aF30.371245601575815
aF30.37456970636987
aF30.434312592810457
aF30.457243255935275
aF30.500863606395427
aF30.504371345372284
aF30.52859231513739
aF30.553267666688292
aF30.556841210325985
aF30.60403363776788
aF30.630151576262673
aF30.63382859025267
aF30.66049143211356
aF30.687679078032037
aF30.71540717657118
aF30.768687044572154
aF30.747516674122807
aF28.751823550453054
aF28.73770943110608
aF28.729281552289734
aF28.72275426163948
aF28.72029334751456
aF28.71786693557225
aF28.718534602435458
aF28.719202269298666
aF28.719869936161874
aF28.722090943030544
aF28.726698483179085
aF28.736301263524965
aF28.753301151424594
aF31.50390519513684
aF31.508751584327353
aF31.472966688252832
aF31.438069637497065
aF31.366198376296495
aF31.262462771516933
aF31.198702053980742
aF31.13778745861448
aF31.174350223462852
aF32.467968502194296
aF32.47415213762968
aF30.391229920559464
aF30.413175863877694
aF30.435511573926888
aF30.498012507723466
aF30.5014882448936
aF30.525459662067448
aF30.549876600501392
aF30.596490282858912
aF30.62228644444104
aF30.625928308913895
aF30.67538715842885
aF30.655934578191083
aF30.706470789019356
aF30.710220177584866
aF30.73817231899191
aF30.766685688343415
aF30.821562071525094
aF28.735066700612226
aF28.726706554215312
aF28.724222123519525
aF28.72410898892951
aF28.726352798262575
aF28.729410391147862
aF28.730888275446468
aF28.73318028477149
aF31.537887785952318
aF31.46175680472002
aF31.427424716157343
aF31.39392380582011
aF31.36122425053931
aF31.293666757994202
aF31.163347096492352
aF31.167598575608235
aF32.43764398507345
aF32.44372885719939
aF32.6597207840405
aF30.411214239543114
aF30.43333608466465
aF30.475355553964445
aF30.498657275025565
aF30.543040239785753
aF30.54654797876261
aF30.571160885865392
aF30.618177639020743
aF30.599809071077747
aF30.64782298005991
aF30.65146484453276
aF30.6780405661295
aF30.75336415164712
aF30.75715080652988
aF30.785854702564023
aF30.815140764819642
aF30.8190042198191
aF28.75314344652954
aF28.743429463979712
aF28.7399095978276
aF28.727586116136454
aF28.727467065384666
aF28.728928507519644
aF28.72644591358032
aF28.725549688120697
aF28.741537555111385
aF28.743061370828485
aF28.752300416914462
aF28.815938730947636
aF31.567023987577286
aF31.490170119231806
aF31.455489873743765
aF31.347362267746824
aF31.315970501191877
aF31.28530362851455
aF31.28970236938981
aF31.193158213486107
aF32.34436149752088
aF32.5485034295868
aF32.48639561620112
aF30.431198558526763
aF30.434522663320816
aF30.49587703454144
aF30.539804355222113
aF30.564128556480917
aF30.567636295457774
aF30.592445171229393
aF30.639864995182577
aF30.64347237578168
aF30.669717651205925
aF30.69646954007792
aF30.700146554067913
aF30.727455702730026
aF30.77991594895061
aF30.78370260383337
aF30.838367624943384
aF30.8952959583744
aF28.760128073138745
aF28.752821628251482
aF28.748316660525667
aF28.747299862981176
aF28.730576522046146
aF28.747515152527548
aF28.7465104338758
aF28.750606716371674
aF28.7573939430117
aF28.82410749297121
aF31.59616018920225
aF31.518583433743586
aF31.444762937378794
aF31.411455336007165
aF31.34272436602935
aF31.31174859527218
aF31.214466372248097
aF31.18627350906934
aF32.50472288669913
aF32.51080775882506
aF32.58567907556536
aF32.66302095849515
aF30.470303162702788
aF30.493146171986943
aF30.516398515118432
aF30.540071294115855
aF30.58521687317608
aF30.588724612152937
aF30.613729456593394
aF30.66155235134441
aF30.665159731943515
aF30.69161232235194
aF30.718575528016334
aF30.72225254200633
aF30.77409408767784
aF30.77784347624335
aF30.8064677462541
aF30.83566673932402
aF30.865457940066584
aF28.774916064279928
aF28.75991255250806
aF28.757058348075237
aF28.754246070173373
aF28.752337750671497
aF28.742039121937044
aF28.733793316738033
aF28.734459815556423
aF28.752525982307883
aF28.75408088128352
aF28.756512006479074
aF28.762506277919492
aF28.829257673221033
aF31.62045000163671
aF31.625296390827216
aF31.50695195253812
aF31.511620188916616
aF31.43884916389791
aF31.406005113779155
aF31.30327453513158
aF31.27344311177937
aF31.244277489241853
aF32.415260512482064
aF32.622854721543916
aF32.6290383569793
aF30.47116719649406
aF30.513485418647562
aF30.536919995695428
aF30.54033344961512
aF30.585071939890895
aF30.6098129288481
aF30.635013741957394
aF30.6606873185677
aF30.7098651290251
aF30.713506993497955
aF30.717148857970805
aF30.744358529944744
aF30.77209854980767
aF30.825446233792068
aF30.829232888674827
aF30.85866042298422
aF30.888684800190326
aF30.919324363871546
aF28.76782528762436
aF28.76308627013177
aF28.760219190054926
aF28.75652031333354
aF28.74529278442492
aF28.73540446023613
aF28.735273274565046
aF28.757555046195364
aF28.75999885983985
aF28.763348463996437
aF28.77036471951743
aF28.826027834361454
aF31.649586203261673
aF31.61203226483976
aF31.535017110124546
aF31.539685346503042
aF31.42857246140533
aF31.396232095704292
aF31.32941765541929
aF31.265585648003846
aF31.236828620753045
aF32.516293298344195
aF32.5900564047026
aF32.66621400295786
aF30.510623604276702
aF30.533824665308178
aF30.557441476272423
aF30.602492126470082
aF30.627393506566406
aF30.652757691767583
aF30.656298027321395
aF30.682171248943582
aF30.70853444426718
aF30.735401664643966
aF30.73904352911682
aF30.76646451788316
aF30.770141531873154
aF30.8482113762128
aF30.851998031095558
aF30.88165410664442
aF30.91191166031407
aF30.9427891781435
aF28.791625728313356
aF28.77679964864696
aF28.769159125489626
aF28.764440293820314
aF28.761584286022256
aF28.746871362175384
aF28.73939049122753
aF28.74085743321334
aF28.76437221430481
aF28.765069196375446
aF28.770260656259364
aF28.782113001891897
aF31.594371082701286
aF31.64080248276763
aF31.56308226771097
aF31.489080249365763
aF31.45564252595817
aF31.386684754669815
aF31.355560775707
aF31.29114528588172
aF31.2953967649976
aF31.140008005981706
aF32.546310880599016
aF32.55230009465975
aF32.6266382915784
aF32.77638795143506
aF30.530783825063658
aF30.554163911968793
aF30.577962956849415
aF30.60219232275129
aF30.626863787389542
aF30.651989562238427
aF30.677582312685395
aF30.703655179319462
aF30.707228722957154
aF30.733829181028117
aF30.760938200262835
aF30.788570505821575
aF30.816741396885313
aF30.845466774901837
aF30.874763173516286
aF30.931275065438353
aF30.93513852043781
aF30.99407017112399
aF30.998013606018493
aF28.78594573140824
aF28.775277418440673
aF28.768661397585706
aF28.764885438657622
aF28.760306686065075
aF28.756679863400603
aF28.75821990378154
aF28.765889731333264
aF28.771060127169367
aF28.77724984876957
aF31.66478718764308
aF31.6695727006955
aF31.551052927984703
aF31.516474077256508
aF31.445289703739444
aF31.44973982537924
aF31.346687913407298
aF31.28317917362118
aF31.254544004485105
aF32.72201438860882
aF32.5883068909753
aF32.6632201784542
aF32.669305050580135
aF30.550944045850613
aF30.57450315862941
aF30.59848443742641
aF30.622899332296434
aF30.647759711138864
aF30.67307787893359
aF30.698866598049396
aF30.725139109695345
aF30.728712653333034
aF30.779191006935996
aF30.78283287140885
aF30.810676493759992
aF30.839062820424136
aF30.868007874454662
aF30.871757263020175
aF30.981912736170138
aF30.958365380561556
aF31.017777865587764
aF31.050408548291834
aF28.78238695209451
aF28.775628746627046
aF28.76996471497289
aF28.764443918356804
aF28.762511491035706
aF28.764067570901
aF28.77095232138865
aF28.777095221716767
aF28.786211610042983
aF31.69355740557095
aF31.698342918623368
aF31.578778357508316
aF31.543867905147255
aF31.472043568576915
aF31.36823654165805
aF31.40784701628242
aF31.308456729463032
aF31.247145143436192
aF32.491853526281524
aF32.699802065330005
aF32.77774094089354
aF30.571104266637573
aF30.57445763017335
aF30.64016202783939
aF30.64360634184158
aF30.690658456651896
aF30.694166195628753
aF30.69767393460561
aF30.70118167358247
aF30.750196583708917
aF30.777203893351782
aF30.804727542554865
aF30.83278248169841
aF30.86138424396296
aF30.890548974007494
aF30.920293458357747
aF30.95063515762502
aF31.03754212515703
aF31.013183620959364
aF31.045428994946036
aF28.79347083142614
aF28.78455858322435
aF28.7796513823305
aF28.774851911518844
aF28.772838061156953
aF28.77533769188549
aF28.78154051556084
aF28.787882309369618
aF31.722327623498817
aF31.684337173525456
aF31.606503787031926
aF31.571261733038
aF31.49879743341439
aF31.429641603525248
aF31.398384086784475
aF31.333734285304885
aF31.30454726865701
aF32.66032048360641
aF32.80873295143671
aF32.814916586872094
aF28.76402917576713
aF28.769298596982782
aF28.773730049765835
aF28.779182678026892
aF28.783766974864527
aF28.787436149010723
aF28.79214745054723
aF28.796932856729335
aF28.801794129818177
aF28.80463278145408
aF28.80961432340783
aF28.813595425276578
aF28.818720823691393
aF28.822814872777798
aF28.826959506204346
aF28.830013755104094
aF28.835404322983187
aF28.84088556280714
aF28.84406310834657
aF28.847267604469153
aF28.8529440987076
aF28.858718545729225
aF28.863321976303645
aF28.867985765139355
aF28.871407809404392
aF28.878827614101684
aF28.883699518630877
aF28.8900116232082
aF28.859036088018208
aF28.79268693706626
aF28.786705977879944
aF28.782728949003772
aF28.782502985149392
aF28.784133189125658
aF28.789540578144045
aF28.797973158375644
aF31.751097841426688
aF31.670674661678174
aF31.67534289805667
aF31.55942006724285
aF31.52555129825186
aF31.455784723812958
aF31.354807282331166
aF31.35901184114674
aF31.29660847767783
aF32.56167193908121
aF32.772965839081614
aF32.85209223285065
aF28.769201511174412
aF28.773598953833528
aF28.77900900146715
aF28.782595014295527
aF28.78915689129424
aF28.791869692641544
aF28.796615589975797
aF28.80246551043606
aF28.806333106267562
aF28.81130833236561
aF28.814207919345293
aF28.818216826887085
aF28.82227456294088
aF28.826382025070085
aF28.83281670433308
aF28.8359015548058
aF28.840179896368426
aF28.84451209751044
aF28.848899181722775
aF28.854565397916172
aF28.857842224648227
aF28.862400364213194
aF28.86701775032529
aF28.87429198434231
aF28.87643494354691
aF28.883910529594395
aF28.888816501110888
aF28.89378867848369
aF28.908812969534278
aF28.867693063130005
aF28.857330828704434
aF28.79192057260863
aF28.78695005276916
aF28.78578391188368
aF28.78835429289105
aF28.79572355355067
aF28.859281364311244
aF28.878923101344764
aF28.88631152090484
aF28.91349170013097
aF31.77986805935456
aF31.6987398192646
aF31.661954646079153
aF31.586490131795685
aF31.514510847582706
aF31.445780801723814
aF31.45008026016165
aF31.38428939698859
aF31.354550532828924
aF32.65751054778906
aF32.80346285383148
aF32.738323290298254
aF32.889267878829216
aF28.773469812330287
aF28.777899310684276
aF28.785269537327256
aF28.789882934114058
aF28.79357333715203
aF28.797306684256494
aF28.80108372940437
aF28.806977661346558
aF28.811928369579725
aF28.81588357633275
aF28.82097580109794
aF28.825042084752035
aF28.828038831167145
aF28.833324757692896
aF28.837543005448488
aF28.840647442314804
aF28.844955469753668
aF28.8493177304842
aF28.854951521565315
aF28.85820910046944
aF28.86399155559364
aF28.867330117447953
aF28.873267103949093
aF28.87799609096725
aF28.882787491661453
aF28.890350349498952
aF28.8939334835909
aF28.901741861872676
aF28.906858796813367
aF28.877756801968346
aF28.86711403290971
aF28.856870691681333
aF28.844688858043085
aF28.844312958403535
aF28.79664400154187
aF28.854052205706115
aF28.86327926099362
aF28.871521578609478
aF28.882569280576323
aF28.889981342144047
aF28.89081206385119
aF28.901140117176823
aF28.91037313236859
aF31.689680075602762
aF31.61356019634852
aF31.579059027926803
aF31.508070964388377
aF31.475928346850235
aF31.409566952830442
aF31.346071811919465
aF31.317376582312043
aF32.69296005526966
aF32.631490351880885
aF32.704753089384006
aF32.85221448495915
aF30.304983023122197
aF30.3424145422385
aF28.779604231734503
aF28.78409667016338
aF28.789627165653958
aF28.795263892076306
aF28.797989783009818
aF28.80276480637688
aF28.80658123970273
aF28.810442694893055
aF28.81541105916633
aF28.81937920994666
aF28.82339511122023
aF28.82635505278837
aF28.83157365485443
aF28.834603135753547
aF28.838803296108864
aF28.844221977290214
aF28.848543353533206
aF28.85412336345796
aF28.858571328475183
aF28.861837350858856
aF28.867638476529482
aF28.872259870682708
aF28.879543651692806
aF28.8843242332807
aF28.887825683912915
aF28.894076360579817
aF28.900439003705294
aF28.90550098885156
aF28.91206889773678
aF28.886668374234645
aF28.877064969319353
aF28.867785312885516
aF28.85523081443895
aF28.852472032345506
aF28.855612309582703
aF28.86482365758062
aF28.871798895621225
aF28.881488937327546
aF28.888825233319658
aF28.88833142964864
aF28.88915319209547
aF28.900704469914654
aF28.904285861182192
aF28.92360178556436
aF28.905965618136932
aF28.886707018500317
aF31.497476975100987
aF31.430639949856726
aF31.400395134144013
aF31.40455379700083
aF32.66639955828072
aF32.81033688292936
aF32.816326096990096
aF30.322519233219086
aF30.373547819057237
aF28.784834834460725
aF28.78937526068804
aF28.79398479398066
aF28.798665024192584
aF28.8034175903222
aF28.809276797361644
aF28.81314654362232
aF28.818126472190357
aF28.82102434821488
aF28.82612715404592
aF28.830199992549076
aF28.83432233774501
aF28.8373568386429
aF28.842719203264426
aF28.846995607679307
aF28.8513252883792
aF28.85570924719422
aF28.858928996431718
aF28.864644133676812
aF28.869197194628857
aF28.87253660247011
aF28.878480092231168
aF28.88452703459419
aF28.889340357749894
aF28.89421734770587
aF28.89915927607253
aF28.905567443552993
aF28.910664110732682
aF28.9158301815974
aF28.899785470522623
aF28.887187988863094
aF28.87765737597304
aF28.86844537238439
aF28.866784811215616
aF28.870037388033158
aF28.87582206289105
aF28.8817050725368
aF28.888996420648677
aF28.893776299307103
aF28.889321903990968
aF28.89409357872096
aF28.900276405544798
aF28.877656450120412
aF28.87347467195942
aF28.874265721373
aF28.882577317276695
aF28.880847148001433
aF31.49137090978882
aF31.391421388103673
aF31.36224170962154
aF32.70130876468056
aF32.84634367924491
aF32.85233289330564
aF30.37210785279071
aF30.375070109903213
aF28.789127132332858
aF28.794673822775817
aF28.79933254260597
aF28.80406285097994
aF28.808866410779654
aF28.81270362238661
aF28.818700197740842
aF28.822656471422967
aF28.827751946630546
aF28.83071155563195
aF28.835933729463793
aF28.84009936149437
aF28.844316041826204
aF28.84858471461188
aF28.852906347431592
aF28.85608103008779
aF28.861712485046414
aF28.86496424833743
aF28.87074269234752
aF28.87534451176621
aF28.881299383417403
aF28.88472720560103
aF28.889510417495572
aF28.894356482219088
aF28.89926664682222
aF28.904242191565242
aF28.910695883400688
aF28.917266222980988
aF28.92102845779331
aF28.909022413539432
aF28.898839339081643
aF28.890319314500378
aF28.88205221114348
aF28.879042513613737
aF28.882388255630357
aF28.88705467083738
aF28.891781090013403
aF28.895239276909273
aF28.89739044045278
aF28.894230527175697
aF28.895047006229795
aF28.898519251848537
aF28.87743936425443
aF28.8720723523542
aF28.869216011453112
aF28.866394460797128
aF28.86716784607074
aF28.876431953758328
aF32.95587527346063
aF32.8883396896212
aF30.389916765179315
aF30.426272171830707
aF28.794385435412426
aF28.799992469985238
aF28.80369847733722
aF28.808462330431755
aF28.81329995441048
aF28.818213076218782
aF28.82320347712875
aF28.82827299489234
aF28.832318069491652
aF28.836411820242148
aF28.840555131074304
aF28.84589988767883
aF28.848994077027942
aF28.853291590336283
aF28.856448209910127
aF28.863263415166116
aF28.867740914269373
aF28.872275137169638
aF28.87559927447742
aF28.880232185264294
aF28.886229136652158
aF28.891001385561797
aF28.894493800396955
aF28.89937260668828
aF28.904315945938574
aF28.909325107057953
aF28.915824323248383
aF28.922441010017092
aF28.920403104140807
aF28.90990638064334
aF28.910748114751968
aF28.90331256513499
aF28.89873719844899
aF28.898222014844112
aF28.897709048939582
aF28.895873234144037
aF28.895368582161307
aF28.900169030144028
aF28.896998048137547
aF28.89649207274912
aF28.89862751411379
aF28.88265764775994
aF28.878460476920296
aF28.869497236206684
aF28.865507486805495
aF28.866274642770357
aF28.868228470226228
aF28.86780895470008
aF28.86621089307104
aF33.07514610872201
aF30.40772567756792
aF30.427393226101504
aF28.799663521026588
aF28.804333579963455
aF28.8100894364077
aF28.81286180988357
aF28.8177334980413
aF28.822681215647354
aF28.826629871668864
aF28.832811971341723
aF28.83577404989368
aF28.842134995393184
aF28.845176532684814
aF28.84939845340792
aF28.85484842171564
aF28.860388358632317
aF28.863587469551
aF28.868038988551355
aF28.87379469376221
aF28.875850816493408
aF28.883017728176686
aF28.88641624730387
aF28.891158889886913
aF28.895963177181205
aF28.89947718329834
aF28.904388731157475
aF28.91075816516056
aF28.914408022550663
aF28.923840854023386
aF28.927615797053196
aF28.92265884790164
aF28.912168607967374
aF28.921487381040258
aF28.912451089965504
aF28.913287281617425
aF28.911347276069204
aF28.902638802174337
aF28.898127768750236
aF28.902935684585664
aF28.902414815436963
aF28.89792485678817
aF28.900054254638576
aF28.899543935413675
aF28.88364850108864
aF28.875796738605075
aF28.869352426566202
aF28.864226517732433
aF28.856919937709755
aF28.853152862541783
aF28.848341886099913
aF28.845792373277252
aF28.84543597759888
aF28.849447737572042
aF32.960353282252306
aF30.4089725269425
aF28.806951800432014
aF28.81069047832415
aF28.815498816995536
aF28.818297346853182
aF28.823220651159275
aF28.827149355075925
aF28.832210035904566
aF28.83735094779111
aF28.841450315213862
aF28.846737822636086
aF28.850952141477677
aF28.855217895154585
aF28.859536031074555
aF28.865114659747725
aF28.86955720579997
aF28.872814561936597
aF28.878610430868267
aF28.883223244406196
aF28.88919453788622
aF28.891314373244498
aF28.89741987628628
aF28.902275372223414
aF28.90582456809475
aF28.910788690892634
aF28.915818620220918
aF28.92378424183694
aF28.927533516599286
aF28.9327905840893
aF28.924894478508776
aF28.917206800218835
aF28.90563750075459
aF28.921710758981312
aF28.895314946810377
aF28.89742978030433
aF28.900875204385212
aF28.9056904805135
aF28.906506959567597
aF28.90597956703068
aF28.902791758663458
aF28.898336464347498
aF28.887596797167976
aF28.879688700660054
aF28.875600398273438
aF28.865693552906947
aF28.857262820582914
aF28.850191121350363
aF28.844383613840364
aF28.837654433208062
aF28.83523165848468
aF28.832835923121884
aF28.83561559176871
aF33.06562093408803
aF32.8525588817256
aF30.443343502345133
aF28.811284698108906
aF28.815048106650853
aF28.82092897848957
aF28.824806449810122
aF28.82660058530294
aF28.833782364059108
aF28.836713315292474
aF28.843007802019294
aF28.84714925789926
aF28.852493315212058
aF28.85558288660226
aF28.861061060159983
aF28.864223640433465
aF28.871062865697052
aF28.876795787193323
aF28.880097095186688
aF28.883426167974324
aF28.889361198095987
aF28.894082211384305
aF28.896212499185125
aF28.902360262911763
aF28.90724793604614
aF28.913586619745168
aF28.91721680641197
aF28.920879075281277
aF28.927452336615726
aF28.934143872422805
aF28.937965371125404
aF28.93000005470044
aF28.922244992470297
aF28.914691968004316
aF28.90598929504258
aF28.90546413262368
aF28.90627712699792
aF28.908433494006946
aF28.91195578300359
aF28.91277401562378
aF28.913592248243965
aF28.907658660538747
aF28.901849830082984
aF28.88605570452082
aF28.88189910352979
aF28.873024148817372
aF28.86327944157847
aF28.85387295479226
aF28.84694058103675
aF28.83913858407121
aF28.83361540718937
aF28.829222313943237
aF28.826903248723575
aF28.825602329360112
aF28.829299733543497
aF28.835084152009802
aF33.02637766082268
aF33.10828769308977
aF30.444315545416615
aF28.814604204482567
aF28.820436005647668
aF28.825328457941385
aF28.82923142803837
aF28.833179904034587
aF28.838268004647865
aF28.84343645257432
aF28.848687166133328
aF28.852871014120097
aF28.857105410937624
aF28.861391278242426
aF28.86813153321783
aF28.87012122434882
aF28.875798939759093
aF28.88031742126086
aF28.88489266633932
aF28.8908150192403
aF28.894217780225887
aF28.898969884882387
aF28.905128155856367
aF28.9100232291789
aF28.912220499868862
aF28.91860274421436
aF28.922254998663437
aF28.927372235171603
aF28.932557912807386
aF28.940784030757865
aF28.94314015816151
aF28.93952332732661
aF28.930148200884773
aF28.916894384787774
aF28.9136020180419
aF28.913058289720666
aF28.91251688695945
aF28.917428061878603
aF28.916874948522647
aF28.923228394947248
aF28.915775818911936
aF28.912525562414036
aF28.902730735419837
aF28.88700969738535
aF28.882870557341608
aF28.871678981267706
aF28.86205247998436
aF28.854957175946176
aF28.845904579965904
aF28.838190397812436
aF28.83070201973626
aF28.825400374387513
aF28.821183363458736
aF28.817999491222672
aF28.818677857672366
aF28.823233061519904
aF32.98834914922877
aF33.14486957996557
aF30.478961327122345
aF28.819950493462688
aF28.82480194037892
aF28.8297279373932
aF28.83473021617941
aF28.837630678337153
aF28.842753645236627
aF28.84795751003045
aF28.854389174758854
aF28.858615721139003
aF28.86289343526152
aF28.868419947928388
aF28.872819142576745
aF28.877272691814834
aF28.88178160927819
aF28.885083058176022
aF28.89096973102831
aF28.895651092616504
aF28.89907436235579
aF28.90385755838047
aF28.908702392118716
aF28.914985020798305
aF28.918581800643313
aF28.925033901668275
aF28.928722563042975
aF28.932443895581105
aF28.93913518927697
aF28.947454193604877
aF28.949830760484247
aF28.949175696790352
aF28.935208655945132
aF28.927453089237947
aF28.921280423077878
aF28.919339416181145
aF28.92292394797154
aF28.925139605997227
aF28.924567472865203
aF28.93101551455169
aF28.920673944852563
aF28.920117445865294
aF28.902306277307883
aF28.88918595918424
aF28.882619547292567
aF28.872685887477303
aF28.866503254286922
aF28.856028996805
aF28.84700921763614
aF28.838288651215354
aF28.83085324611536
aF28.823630809530496
aF28.817562970350583
aF28.813510709521605
aF28.81137893250545
aF28.812043107452016
aF28.81740111387843
aF31.906720663517284
aF28.826354631522065
aF28.829167875110173
aF28.83519593352693
aF28.83916375981023
aF28.843177938242764
aF28.847239285825385
aF28.853612965660307
aF28.860113963597207
aF28.862039817292164
aF28.86870486395114
aF28.8742900223632
aF28.877506751935655
aF28.881989260233745
aF28.88778912322074
aF28.892401642565115
aF28.89577536400207
aF28.900487165992704
aF28.905259040596825
aF28.910092144018886
aF28.916359660341392
aF28.919946812417713
aF28.924970843035688
aF28.930061035810795
aF28.933771862159325
aF28.93751555599061
aF28.94574191993178
aF28.952628980640984
aF28.956551732487135
aF28.955879966216834
aF28.941733545779215
aF28.936750569026184
aF28.92902536388345
aF28.92844359437367
aF28.933512154671398
aF28.931501332465015
aF28.93803816474539
aF28.93743166864282
aF28.92695793136062
aF28.93197314683118
aF28.90966607857243
aF28.8913446566973
aF28.88357317118397
aF28.87718916686521
aF28.870954028589487
aF28.859288637053538
aF28.850230854558514
aF28.84147299275782
aF28.831999539862775
aF28.823829084652925
aF28.815915916798808
aF28.810997328358134
aF28.80799299476073
aF28.80502970322532
aF28.809303073325676
aF28.816427368630745
aF31.977503769067667
aF28.827578353647056
aF28.835656304056393
aF28.83960387985566
aF28.844692475804354
aF28.84653222694228
aF28.853977376916077
aF28.859290836415887
aF28.864689207564346
aF28.868986344564867
aF28.874539839250374
aF28.877737955404143
aF28.883431577075918
aF28.887960012931554
aF28.893821636667102
aF28.898481705326958
aF28.90188808761122
aF28.90664866119133
aF28.911470058437203
aF28.916353452517484
aF28.919917415560633
aF28.926311076675013
aF28.93138780891424
aF28.935088169953318
aF28.940279161414082
aF28.945539426030322
aF28.95087035977948
aF28.959341069815057
aF28.96330328141957
aF28.96416990697089
aF28.94828739582438
aF28.946171300174477
aF28.938272309269127
aF28.93910303097627
aF28.939933752683412
aF28.93932445183334
aF28.947425947534477
aF28.940982280354454
aF28.936091771009835
aF28.938335893194125
aF28.897694393695705
aF28.893486001708002
aF28.886920513927883
aF28.884072094910323
aF28.875404802892053
aF28.867002864576634
aF28.856676553735106
aF28.845686331583853
aF28.833133477104916
aF28.824024560320446
aF28.814303081179947
aF28.807639731259258
aF28.8038087014749
aF28.80179778072022
aF28.802439578206357
aF28.806637394277036
aF32.09620878322212
aF28.838967303025424
aF28.84619530929804
aF28.850242678784596
aF28.852096818163997
aF28.857343384375344
aF28.86267296412552
aF28.86926445153149
aF28.875988936227717
aF28.879179965746864
aF28.883627022511437
aF28.888128799861683
aF28.89395545802455
aF28.89858727358227
aF28.900673654119522
aF28.906703824717276
aF28.912836285974354
aF28.91770758450048
aF28.921262075702213
aF28.92763972187705
aF28.932703035086906
aF28.93783288174044
aF28.941569736659567
aF28.946815278851897
aF28.953635000082983
aF28.959044538762793
aF28.967646756791655
aF28.970085616420988
aF28.970954217814764
aF28.95637717502032
aF28.954215781396453
aF28.94764102896315
aF28.949950046756776
aF28.947845205948795
aF28.95014960391892
aF28.956938454344545
aF28.944517475090052
aF28.943900884285394
aF28.92648905070217
aF28.90233452019219
aF28.896847030246906
aF28.89268724728394
aF28.889798978198133
aF28.881025609022284
aF28.878266558864038
aF28.86872872267026
aF28.854132239957842
aF28.82326331995652
aF28.81363964376431
aF28.80614899758593
aF28.80062009197524
aF28.797789336376024
aF28.79499591286887
aF28.79139978860225
aF28.799685973066506
aF28.840469047647744
aF28.845505744916274
aF28.849517908471487
aF28.85469345308716
aF28.858814387382235
aF28.86413456002594
aF28.869539245141283
aF28.876226026098387
aF28.880610337838228
aF28.886281004440068
aF28.888295522585558
aF28.89535443199171
aF28.89869153208659
aF28.903352910497432
aF28.909392914813488
aF28.91285245393488
aF28.91634127330283
aF28.922595257998562
aF28.926170698886946
aF28.9325907878645
aF28.93768641798829
aF28.944306246586436
aF28.949558337426172
aF28.953380406333633
aF28.958751982562994
aF28.96574082890193
aF28.974438994597143
aF28.98010357256614
aF28.97937017089789
aF28.966078027244688
aF28.96081197048647
aF28.958635722923166
aF28.959479320880888
aF28.95582627001796
aF28.962680577206612
aF28.96201011475405
aF28.95094904615722
aF28.95324513783602
aF28.93131493451914
aF28.906974646688678
aF28.902691656193802
aF28.900957153636696
aF28.89677298534652
aF28.89144806095696
aF28.89340529158946
aF28.883437558880033
aF28.85517306627692
aF28.837350230539695
aF28.82157416230549
aF28.810274680496672
aF28.801192425702716
aF28.7907652850019
aF28.78807146742158
aF28.78217901128226
aF28.78198416688284
aF29.613399303846645
aF29.609096682584237
aF29.63529809038641
aF29.643318753804035
aF29.65141381673072
aF28.849896789955537
aF28.855045265754537
aF28.860273934217066
aF28.863291260286914
aF28.868646710936435
aF28.872907765764037
aF28.879614874194278
aF28.885231739448738
aF28.889697596471677
aF28.89547747279676
aF28.90135276388456
aF28.904721636514385
aF28.90943045276149
aF28.914198547787247
aF28.91767833775185
aF28.922549450234158
aF28.928869914793275
aF28.932479987093817
aF28.938968656034813
aF28.944117117976624
aF28.949333380728955
aF28.956115001713183
aF28.96149289123422
aF28.966943192258004
aF28.974037884166997
aF28.979660974167075
aF28.98536151530307
aF28.986236098653794
aF28.977488687012816
aF28.97052089133647
aF28.969826921481133
aF28.967600892185796
aF28.96691802261996
aF28.97393306094759
aF28.967081775163553
aF28.9588913534544
aF28.959723890507625
aF28.910335585195504
aF28.909830263139337
aF28.910598967004667
aF28.910094132131455
aF28.918589777291288
aF28.90782920354877
aF28.821780104690447
aF28.805241164588818
aF28.794711253921786
aF28.78623752149278
aF28.778057085143924
aF28.772444746823286
aF28.7684728260264
aF29.61771286602483
aF29.625508391276906
aF29.639570675147326
aF29.647574114782106
aF29.66203674203473
aF28.854661233508825
aF28.8542878349948
aF28.860594021579164
aF28.865876188133324
aF28.870079126353097
aF28.87433184171257
aF28.879828434572925
aF28.88419927578031
aF28.89108833154919
aF28.895599011915824
aF28.900165082155674
aF28.90607906499997
aF28.9107767823501
aF28.914206026146733
aF28.920350007248118
aF28.925227771920714
aF28.93016785755593
aF28.933768040733902
aF28.938816434764842
aF28.945374217303886
aF28.950575923516816
aF28.954360514871478
aF28.96118666212269
aF28.968134810888998
aF28.97364218670336
aF28.982410434010568
aF28.98811681063951
aF28.99390214810446
aF28.99643552354997
aF28.98587693621586
aF28.98194592219245
aF28.981219940233398
aF28.974241621680022
aF28.97820845839251
aF28.980632708147187
aF28.972153435573055
aF28.96690338965033
aF28.967739581302254
aF28.92199714624303
aF28.918847765110662
aF28.91962272355049
aF28.923018061721468
aF28.9264412527553
aF28.935299314171058
aF28.82571816163473
aF28.808173442239582
aF28.792584059456093
aF28.77948609735248
aF28.771584119793737
aF28.76468214258362
aF28.75584666915832
aF28.752185844780797
aF29.628048180825648
aF29.635890554743437
aF28.89048945037551
aF28.85979250325828
aF28.865027565209985
aF28.869192814138298
aF28.874573569035277
aF28.881230725040663
aF28.885592525748265
aF28.89246786481245
aF28.896968653251303
aF28.901524484788773
aF28.90742533525486
aF28.912111976290007
aF28.91685712590368
aF28.92031894300548
aF28.925165744354175
aF28.928699194815774
aF28.935045123126823
aF28.93866616667453
aF28.945180217647472
aF28.951807652431878
aF28.95706301926652
aF28.960884474655696
aF28.967783682732406
aF28.973251793369005
aF28.980371383283753
aF28.987620534933978
aF28.99336271074146
aF29.002521932175306
aF29.005087091634568
aF29.000941577364166
aF28.99357933888204
aF28.992820288241916
aF28.987241873376053
aF28.98970296400676
aF28.98736249248872
aF28.97722509598256
aF28.97498607706327
aF28.972766715444774
aF28.929347130481023
aF28.928794528650453
aF28.93905259540267
aF28.93984529074192
aF28.96490251637142
aF28.959849224365684
aF28.792139804556818
aF28.77683100674244
aF28.766840492608946
aF28.757265254560988
aF28.750825145638835
aF28.743231893991112
aF29.632276560921206
aF28.88376938312898
aF28.873834909235928
aF28.873415916179013
aF28.874162038145826
aF28.88199473337934
aF28.864191982710096
aF28.869461108840806
aF28.874812466990466
aF28.880247997315493
aF28.885769701490048
aF28.890158648609372
aF28.89707996053802
aF28.902872849068395
aF28.907474162498037
aF28.91083359816031
aF28.916848050352048
aF28.921622762818842
aF28.926457457772496
aF28.92998148146023
aF28.93631137385272
aF28.939922388697717
aF28.946419251030804
aF28.953028708032512
aF28.956791035333264
aF28.962079143735718
aF28.968958423558977
aF28.9744100488238
aF28.98150808144876
aF28.98713098670824
aF28.99445831148309
aF29.000260760163126
aF29.011221972952846
aF29.015538030617957
aF29.0112908250417
aF29.007102389316227
aF29.004633676916754
aF29.000538521239523
aF28.99812761792364
aF28.99251400168843
aF28.987000492148063
aF28.98470317933618
aF28.940064501106757
aF28.938118055885013
aF28.9444102242585
aF28.95939270465416
aF28.95587933486613
aF28.980435071451026
aF28.777290898995613
aF28.765883268610352
aF28.755710712993025
aF28.745306397032504
aF28.73989754040161
aF28.877581765849317
aF28.86230255003187
aF28.849943431433235
aF28.850654727638055
aF28.854590431322872
aF28.857478291087162
aF28.8592900774331
aF28.864431676171197
aF28.870786833054826
aF28.879595221795856
aF28.888647027135615
aF28.902948642025446
aF28.90752239502517
aF28.912152197699776
aF28.915530820946074
aF28.922915776241574
aF28.92773839817394
aF28.93262173157242
aF28.937566930134025
aF28.942575176973634
aF28.947647685567663
aF28.954239228451613
aF28.95946479411004
aF28.966260907854213
aF28.968605725647116
aF28.97555804539348
aF28.98263462169501
aF28.988239834643924
aF28.992305773744345
aF28.99968029105302
aF29.007190553166556
aF29.035936573645575
aF29.027900583085508
aF29.02352661911925
aF29.019213742520193
aF29.016666029392496
aF29.010766203004405
aF29.004973741191385
aF29.000913289671708
aF28.996907510788056
aF28.994550534571264
aF28.950397216211247
aF28.954021909462277
aF28.975322279722874
aF28.976147602583396
aF29.008587115634796
aF29.00289220786346
aF28.780045295545733
aF28.764943147806758
aF28.75418782244997
aF28.743921646041212
aF28.735380637796716
aF28.889718609759424
aF28.8739034577914
aF28.855662011748976
aF28.848898821132742
aF28.853857563622057
aF28.855642294035814
aF28.85960609084845
aF28.863614793821263
aF28.869913708920556
aF28.878642220202433
aF28.88642028839866
aF28.890752667947368
aF28.901291159301472
aF28.912171940981946
aF28.918135803016778
aF28.92419811706839
aF28.92900869977087
aF28.93251397155918
aF28.938811926885013
aF28.945216715341385
aF28.95029531023858
aF28.953989479887134
aF28.9591796150771
aF28.96592888687547
aF28.972796668137715
aF29.242124452859592
aF29.201185188260883
aF29.18644695116232
aF29.143046137440184
aF29.10799725653236
aF29.081782392016958
aF29.066849608788054
aF29.054375281339844
aF29.044146171449594
aF29.039593941554724
aF29.033325283774168
aF29.02717363022981
aF29.021135735391702
aF29.01185108177316
aF29.007734715675745
aF29.003673899746417
aF28.96444240441671
aF28.96234749300318
aF28.977944421093703
aF28.99900344909618
aF28.993493488321818
aF29.030799587198846
aF29.021361217568625
aF29.29348945671303
aF29.13306601082256
aF28.76690030080195
aF28.753378690601153
aF28.74387279194769
aF28.736024409310463
aF28.87259112342062
aF28.85670592343829
aF28.855267770505787
aF28.85812586477793
aF28.861005343541745
aF28.863906447699197
aF28.865723509680407
aF28.869774514031906
aF28.878434222253404
aF28.88614952941046
aF28.895255947335272
aF28.90838119766066
aF28.919421947066112
aF28.924143950887405
aF28.930268494555467
aF28.93512697822509
aF28.94143364941008
aF29.26191869421194
aF29.26617301869154
aF29.488570363357248
aF29.45857669940444
aF29.45129294226165
aF29.212174245100396
aF29.19452751382381
aF29.17505550960003
aF29.186301740411796
aF29.106333380014597
aF29.08648177834877
aF29.07542056326789
aF29.064683398793473
aF29.061790958012146
aF29.047773125860978
aF29.041412436884794
aF29.02816206066053
aF29.020454372767293
aF29.01626056858953
aF29.01212361533665
aF28.973738597211344
aF28.99131164310513
aF29.024817273923016
aF29.022284669705748
aF29.066233987835602
aF29.050406021483756
aF29.27880248941106
aF29.256103198212916
aF29.132360537933312
aF29.128939801929167
aF28.758756261351056
aF28.74513126354112
aF28.736031108431156
aF29.673432109070728
aF28.856667543212005
aF28.85737226078025
aF28.865674531851933
aF28.865289612584235
aF28.866002239282935
aF28.868922107224776
aF28.87298358113204
aF28.897045782446185
aF28.90145818644935
aF28.90717066287285
aF30.759350785668097
aF30.762336256023463
aF29.262921158168645
aF29.26409843036459
aF29.483530840665207
aF29.480441548332657
aF29.45972565960661
aF29.18294497736784
aF29.164102669547187
aF29.167594474642826
aF29.171105592250715
aF29.15046738465182
aF29.117552548582164
aF29.099390945110645
aF29.088053555033923
aF29.077050756978952
aF29.06256943564715
aF29.05413948875991
aF29.036981465928793
aF29.029136845354486
aF29.0231636423068
aF28.988443434832543
aF28.99392749385204
aF29.061451991789845
aF29.054946781723014
aF29.04856356035946
aF29.085373944937906
aF29.074596231140244
aF29.47005944636078
aF29.254209727300744
aF29.238334443466304
aF29.144042845573054
aF29.136077378342808
aF29.130455073123475
aF29.140276220482736
aF28.7470342380413
aF28.737919885626898
aF29.690060069630547
aF29.698183535542622
aF28.87259055836264
aF28.8744308793824
aF28.876278163262267
aF28.87699887863674
aF28.879993778266655
aF28.88532335556723
aF28.893103739765262
aF28.90228781119716
aF30.817079072758446
aF30.78028472503822
aF29.25789809290481
aF29.265081348277167
aF29.474154176995157
aF29.502804059595004
aF29.203921510077894
aF29.181769120608013
aF29.160701419532465
aF29.14989132754562
aF29.153260322416845
aF29.151936238614255
aF29.141385345787672
aF29.124480245396782
aF29.10826232560741
aF29.09066927349449
aF29.07772697406903
aF29.065219594370284
aF29.0458833705939
aF29.037899597726735
aF29.00520324227293
aF29.001257136996053
aF29.100279519319862
aF29.08912374933693
aF29.12753322141756
aF29.11141702896005
aF29.09795584605215
aF29.45704393194209
aF29.249508285725533
aF29.23940647202
aF29.240505624111552
aF28.742974154355604
aF29.687681494534345
aF29.708565699009153
aF29.730025726516132
aF29.7625492789801
aF29.76611630916226
aF29.796314125310822
aF29.835256254952675
aF28.883195640944358
aF29.854379822979443
aF29.86408388792597
aF29.873884698132372
aF31.002723603031132
aF30.938131890726325
aF30.815122298796627
aF30.818131349081895
aF29.258906704778298
aF29.266052265140335
aF29.180330543630344
aF29.171462032073556
aF29.165197446062837
aF29.16142222274592
aF29.15532297741451
aF29.14700411055264
aF29.17423853311353
aF29.146722297775113
aF29.1341092998925
aF29.1328731071429
aF29.127232038596755
aF29.119520289732122
aF29.109859150028655
aF29.096358183739166
aF29.08135962132476
aF29.06693432907467
aF29.05123968211903
aF29.022566177228125
aF29.06868807800996
aF29.166946919973032
aF29.151615643260204
aF29.211416994264326
aF29.189504224093167
aF29.14777015789086
aF29.46382435029936
aF29.460979688403103
aF29.24771041092253
aF29.23771585064265
aF29.241559046181724
aF30.793452488486295
aF29.70429877018287
aF29.712449830592405
aF29.733864994628366
aF29.742301750911828
aF29.75081640508361
aF29.77327166491573
aF29.78209217643448
aF29.79099605342974
aF29.799984483383827
aF29.816393603394182
aF29.840679379619967
aF29.82746930900769
aF29.829304368132373
aF29.885301917637943
aF30.889040545344624
aF30.830203478652777
aF30.813196192712365
aF30.919650114116966
aF29.2569537909562
aF29.267011399412738
aF29.186699698293612
aF29.175295898670722
aF29.1666023173197
aF29.160461253263406
aF29.15208766723115
aF29.14617515299947
aF29.14035560023252
aF29.13685751218334
aF29.133395710351977
aF29.1277796393898
aF29.11372269669495
aF29.10219942230811
aF29.09301263533439
aF29.082097722325866
aF29.069606850552326
aF29.052088795640202
aF29.044070372036007
aF29.066698398604657
aF29.14778201606518
aF29.155631453661957
aF29.161268936863294
aF29.16696629604674
aF29.199764146140843
aF29.1982834665464
aF29.4663880486371
aF29.480491222518545
aF29.452473920101415
aF29.248725410259155
aF29.23605399676888
aF29.239859675127157
aF30.81059495281098
aF30.832558934719064
aF29.701803999236216
aF29.716299065988014
aF29.731056949905945
aF29.739404085959716
aF29.761390288823467
aF29.776980982042872
aF29.792864994395575
aF29.8018197800655
aF29.818168127751644
aF29.82737298449544
aF29.84420606735756
aF29.85367186636621
aF29.82543832738589
aF30.950800491257464
aF30.828159191371753
aF30.85130275907946
aF30.982429697010232
aF29.2550357910523
aF29.267958964282776
aF29.19668037954787
aF29.157171223909664
aF29.153528490112244
aF29.149924140209006
aF29.146357570696455
aF29.13834743569698
aF29.134895808396653
aF29.138095303432653
aF29.13908073366175
aF29.13784447212464
aF29.092641849725204
aF29.081811076649842
aF29.076967169574502
aF29.149496978887615
aF29.15504345865778
aF29.1629709598311
aF29.171024758565263
aF29.16497816284988
aF29.182646529377593
aF29.178838613913282
aF29.187128875070893
aF29.190607436523422
aF29.448225935534424
aF29.241469142417117
aF29.23711470210094
aF29.235491516449144
aF30.808802640657483
aF30.84983066817678
aF30.892115194339564
aF29.705649237148492
aF29.726587953025394
aF29.741439113372476
aF29.76335233671843
aF29.771964172563322
aF29.794716436786995
aF29.796499951878076
aF29.819925800878455
aF29.829095128972057
aF29.838352365596695
aF29.847698781041675
aF29.864811444143072
aF29.836365328606302
aF29.740558936334416
aF30.823184437303695
aF30.8261466944162
aF30.849093130741878
aF29.25780848113789
aF29.256037459154157
aF29.129535608494773
aF29.111285695478745
aF29.10191806162703
aF29.10903217026534
aF29.10998316300992
aF29.14554658811306
aF29.148798869130346
aF29.156656321634642
aF29.146263118246402
aF29.13833619028819
aF29.14152807202757
aF29.144736423292247
aF29.15021506118563
aF29.15575082614606
aF29.15903827743081
aF29.162342958063046
aF29.163341299753313
aF29.150633750748224
aF29.147136772081602
aF29.141472921210422
aF29.140249427065708
aF29.14562120928664
aF29.16700413664264
aF29.191860837431054
aF29.440096704623087
aF29.425770100814855
aF29.24249930639019
aF29.23548112678898
aF29.231220533060565
aF30.825817756486604
aF30.867102401634494
aF30.88966262273834
aF29.69694541034437
aF29.73035674789872
aF29.751821276839006
aF29.76703915750236
aF29.782538056303174
aF29.645500023882008
aF29.67638005433747
aF29.81620253405284
aF29.840022130192466
aF29.856895987496326
aF29.86637739132042
aF29.868221332170634
aF29.668322391338794
aF29.693852642084906
aF30.424017295002958
aF30.469274952533294
aF30.471804506815207
aF30.474334061097125
aF29.255905521778224
aF29.254155685348195
aF29.09465556356347
aF29.087670806045182
aF29.084688407391898
aF29.085607288326806
aF29.084582977006665
aF29.091364145726782
aF29.110424649142033
aF29.121810514519098
aF29.14225923553271
aF29.15220282932621
aF29.146441570999034
aF29.140768582869757
aF29.14395034872814
aF29.151628374459854
aF29.152611262369184
aF29.14910413248314
aF29.15008197490463
aF29.148827043992917
aF29.140974566474593
aF29.131141692548972
aF29.129965365616275
aF29.12458351071755
aF29.125527434822583
aF29.12647135892762
aF29.138058507306134
aF29.189257643448
aF29.428323870089862
aF29.410649695536456
aF29.240820559569304
aF29.23387473162756
aF29.234931211299163
aF30.842832872315725
aF30.864873748822095
aF30.887247040195223
aaa.